---
triple:          'arm64-apple-darwin'
binary-path:     main4
relocations:
  - { offsetInCU: 0x3F, offset: 0x3F, size: 0x8, addend: 0x0, symName: _Grid, symObjAddr: 0x493D0, symBinAddr: 0x100010040, symSize: 0x0 }
  - { offsetInCU: 0x765A, offset: 0x765A, size: 0x8, addend: 0x0, symName: __ZNSt3__124__put_character_sequenceB8ue170006IcNS_11char_traitsIcEEEERNS_13basic_ostreamIT_T0_EES7_PKS4_m, symObjAddr: 0x7AEC, symBinAddr: 0x10000AB74, symSize: 0x1EC }
  - { offsetInCU: 0x9E0A, offset: 0x9E0A, size: 0x8, addend: 0x0, symName: __ZNSt3__1rsB8ue170006IcNS_11char_traitsIcEEEERNS_13basic_istreamIT_T0_EES7_RS4_, symObjAddr: 0x9A8, symBinAddr: 0x100003A30, symSize: 0x190 }
  - { offsetInCU: 0x9E8C, offset: 0x9E8C, size: 0x8, addend: 0x0, symName: __ZNSt3__1rsB8ue170006IcNS_11char_traitsIcEENS_9allocatorIcEEEERNS_13basic_istreamIT_T0_EES9_RNS_12basic_stringIS6_S7_T1_EE, symObjAddr: 0xB64, symBinAddr: 0x100003BEC, symSize: 0x318 }
  - { offsetInCU: 0x9F5B, offset: 0x9F5B, size: 0x8, addend: 0x0, symName: __ZNSt3__1eqB8ue170006IcNS_11char_traitsIcEENS_9allocatorIcEEEEbRKNS_12basic_stringIT_T0_T1_EEPKS6_, symObjAddr: 0xE7C, symBinAddr: 0x100003F04, symSize: 0xAC }
  - { offsetInCU: 0x9FC2, offset: 0x9FC2, size: 0x8, addend: 0x0, symName: __ZNSt3__13minB8ue170006IiEERKT_S3_S3_, symObjAddr: 0xF28, symBinAddr: 0x100003FB0, symSize: 0x2C }
  - { offsetInCU: 0xA005, offset: 0xA005, size: 0x8, addend: 0x0, symName: __ZNSt3__13maxB8ue170006IiEERKT_S3_S3_, symObjAddr: 0xF54, symBinAddr: 0x100003FDC, symSize: 0x2C }
  - { offsetInCU: 0xA053, offset: 0xA053, size: 0x8, addend: 0x0, symName: __ZNSt3__1neB8ue170006IP4NodeEEbRKNS_11__wrap_iterIT_EES7_, symObjAddr: 0x1290, symBinAddr: 0x100004318, symSize: 0x34 }
  - { offsetInCU: 0xA096, offset: 0xA096, size: 0x8, addend: 0x0, symName: __ZNSt3__1ltB8ue170006IP4NodeEEbRKNS_11__wrap_iterIT_EES7_, symObjAddr: 0x15D0, symBinAddr: 0x100004658, symSize: 0x48 }
  - { offsetInCU: 0xA0F5, offset: 0xA0F5, size: 0x8, addend: 0x0, symName: __ZNSt3__14endlB8ue170006IcNS_11char_traitsIcEEEERNS_13basic_ostreamIT_T0_EES7_, symObjAddr: 0x1D60, symBinAddr: 0x100004DE8, symSize: 0x58 }
  - { offsetInCU: 0xA135, offset: 0xA135, size: 0x8, addend: 0x0, symName: __ZNSt3__1neB8ue170006IPNS_6vectorI4NodeNS_9allocatorIS2_EEEEEEbRKNS_11__wrap_iterIT_EESB_, symObjAddr: 0x1F8C, symBinAddr: 0x100005014, symSize: 0x34 }
  - { offsetInCU: 0xA178, offset: 0xA178, size: 0x8, addend: 0x0, symName: __ZNSt3__1lsB8ue170006INS_11char_traitsIcEEEERNS_13basic_ostreamIcT_EES6_PKc, symObjAddr: 0x200C, symBinAddr: 0x100005094, symSize: 0x48 }
  - { offsetInCU: 0xA1BE, offset: 0xA1BE, size: 0x8, addend: 0x0, symName: __ZNSt3__13minB8ue170006IiNS_6__lessIvvEEEERKT_S5_S5_T0_, symObjAddr: 0x2284, symBinAddr: 0x10000530C, symSize: 0x54 }
  - { offsetInCU: 0xA28E, offset: 0xA28E, size: 0x8, addend: 0x0, symName: __ZNSt3__13maxB8ue170006IiNS_6__lessIvvEEEERKT_S5_S5_T0_, symObjAddr: 0x230C, symBinAddr: 0x100005394, symSize: 0x54 }
  - { offsetInCU: 0xA2E8, offset: 0xA2E8, size: 0x8, addend: 0x0, symName: __ZNSt3__1eqB8ue170006IP4NodeEEbRKNS_11__wrap_iterIT_EES7_, symObjAddr: 0x2478, symBinAddr: 0x100005500, symSize: 0x48 }
  - { offsetInCU: 0xA32B, offset: 0xA32B, size: 0x8, addend: 0x0, symName: __ZNSt3__112__to_addressB8ue170006I4NodeEEPT_S3_, symObjAddr: 0x24D8, symBinAddr: 0x100005560, symSize: 0x14 }
  - { offsetInCU: 0xA360, offset: 0xA360, size: 0x8, addend: 0x0, symName: __ZNSt3__1eqB8ue170006IPNS_6vectorI4NodeNS_9allocatorIS2_EEEEEEbRKNS_11__wrap_iterIT_EESB_, symObjAddr: 0x252C, symBinAddr: 0x1000055B4, symSize: 0x48 }
  - { offsetInCU: 0xA3A3, offset: 0xA3A3, size: 0x8, addend: 0x0, symName: __ZNSt3__112__to_addressB8ue170006INS_6vectorI4NodeNS_9allocatorIS2_EEEEEEPT_S7_, symObjAddr: 0x2C18, symBinAddr: 0x100005CA0, symSize: 0x14 }
  - { offsetInCU: 0xA3D8, offset: 0xA3D8, size: 0x8, addend: 0x0, symName: __ZNSt3__119__libcpp_deallocateB8ue170006EPvmm, symObjAddr: 0x2D08, symBinAddr: 0x100005D90, symSize: 0x30 }
  - { offsetInCU: 0xA420, offset: 0xA420, size: 0x8, addend: 0x0, symName: __ZNSt3__127__do_deallocate_handle_sizeB8ue170006IJEEEvPvmDpT_, symObjAddr: 0x2D38, symBinAddr: 0x100005DC0, symSize: 0x28 }
  - { offsetInCU: 0xA45E, offset: 0xA45E, size: 0x8, addend: 0x0, symName: __ZNSt3__124__libcpp_operator_deleteB8ue170006IJPvEEEvDpT_, symObjAddr: 0x2D60, symBinAddr: 0x100005DE8, symSize: 0x24 }
  - { offsetInCU: 0xA493, offset: 0xA493, size: 0x8, addend: 0x0, symName: __ZNSt3__122__make_exception_guardB8ue170006INS_6vectorI4NodeNS_9allocatorIS2_EEE16__destroy_vectorEEENS_28__exception_guard_exceptionsIT_EES8_, symObjAddr: 0x375C, symBinAddr: 0x1000067E4, symSize: 0x40 }
  - { offsetInCU: 0xA4C8, offset: 0xA4C8, size: 0x8, addend: 0x0, symName: __ZNSt3__119__allocate_at_leastB8ue170006INS_9allocatorI4NodeEEEENS_19__allocation_resultINS_16allocator_traitsIT_E7pointerEEERS6_m, symObjAddr: 0x3A34, symBinAddr: 0x100006ABC, symSize: 0x40 }
  - { offsetInCU: 0xA50B, offset: 0xA50B, size: 0x8, addend: 0x0, symName: __ZNSt3__13minB8ue170006ImEERKT_S3_S3_, symObjAddr: 0x3B48, symBinAddr: 0x100006BD0, symSize: 0x2C }
  - { offsetInCU: 0xA74F, offset: 0xA74F, size: 0x8, addend: 0x0, symName: __ZNSt3__13minB8ue170006ImNS_6__lessIvvEEEERKT_S5_S5_T0_, symObjAddr: 0x3BD4, symBinAddr: 0x100006C5C, symSize: 0x54 }
  - { offsetInCU: 0xA7A9, offset: 0xA7A9, size: 0x8, addend: 0x0, symName: __ZNSt3__120__throw_length_errorB8ue170006EPKc, symObjAddr: 0x3CB0, symBinAddr: 0x100006D38, symSize: 0x64 }
  - { offsetInCU: 0xA7D3, offset: 0xA7D3, size: 0x8, addend: 0x0, symName: __ZNSt3__117__libcpp_allocateB8ue170006Emm, symObjAddr: 0x3E20, symBinAddr: 0x100006EA8, symSize: 0x28 }
  - { offsetInCU: 0xA810, offset: 0xA810, size: 0x8, addend: 0x0, symName: __ZNSt3__121__libcpp_operator_newB8ue170006IJmEEEPvDpT_, symObjAddr: 0x3E48, symBinAddr: 0x100006ED0, symSize: 0x24 }
  - { offsetInCU: 0xA849, offset: 0xA849, size: 0x8, addend: 0x0, symName: __ZNSt3__13maxB8ue170006ImEERKT_S3_S3_, symObjAddr: 0x45CC, symBinAddr: 0x100007654, symSize: 0x2C }
  - { offsetInCU: 0xA88C, offset: 0xA88C, size: 0x8, addend: 0x0, symName: __ZNSt3__13maxB8ue170006ImNS_6__lessIvvEEEERKT_S5_S5_T0_, symObjAddr: 0x4694, symBinAddr: 0x10000771C, symSize: 0x54 }
  - { offsetInCU: 0xA8E6, offset: 0xA8E6, size: 0x8, addend: 0x0, symName: __ZNSt3__119__allocate_at_leastB8ue170006INS_9allocatorINS_6vectorI4NodeNS1_IS3_EEEEEEEENS_19__allocation_resultINS_16allocator_traitsIT_E7pointerEEERS9_m, symObjAddr: 0x4804, symBinAddr: 0x10000788C, symSize: 0x40 }
  - { offsetInCU: 0xA929, offset: 0xA929, size: 0x8, addend: 0x0, symName: __ZNSt3__142__uninitialized_allocator_move_if_noexceptB8ue170006INS_9allocatorINS_6vectorI4NodeNS1_IS3_EEEEEENS_16reverse_iteratorIPS5_EES9_S9_EET2_RT_T0_T1_SA_, symObjAddr: 0x49BC, symBinAddr: 0x100007A44, symSize: 0x12C }
  - { offsetInCU: 0xA9C9, offset: 0xA9C9, size: 0x8, addend: 0x0, symName: __ZNSt3__14swapB8ue170006IPNS_6vectorI4NodeNS_9allocatorIS2_EEEEEENS_9enable_ifIXaasr21is_move_constructibleIT_EE5valuesr18is_move_assignableIS8_EE5valueEvE4typeERS8_SB_, symObjAddr: 0x4B34, symBinAddr: 0x100007BBC, symSize: 0x3C }
  - { offsetInCU: 0xAA1A, offset: 0xAA1A, size: 0x8, addend: 0x0, symName: __ZNSt3__122__make_exception_guardB8ue170006INS_29_AllocatorDestroyRangeReverseINS_9allocatorINS_6vectorI4NodeNS2_IS4_EEEEEENS_16reverse_iteratorIPS6_EEEEEENS_28__exception_guard_exceptionsIT_EESD_, symObjAddr: 0x4C38, symBinAddr: 0x100007CC0, symSize: 0x4C }
  - { offsetInCU: 0xAA50, offset: 0xAA50, size: 0x8, addend: 0x0, symName: __ZNSt3__1neB8ue170006IPNS_6vectorI4NodeNS_9allocatorIS2_EEEES6_EEbRKNS_16reverse_iteratorIT_EERKNS7_IT0_EE, symObjAddr: 0x4CC8, symBinAddr: 0x100007D50, symSize: 0x48 }
  - { offsetInCU: 0xAA9C, offset: 0xAA9C, size: 0x8, addend: 0x0, symName: __ZNSt3__112__to_addressB8ue170006INS_16reverse_iteratorIPNS_6vectorI4NodeNS_9allocatorIS3_EEEEEEvEEu7__decayIDTclsr19__to_address_helperIT_EE6__callclsr3stdE7declvalIRKS9_EEEEESB_, symObjAddr: 0x4D44, symBinAddr: 0x100007DCC, symSize: 0x24 }
  - { offsetInCU: 0xAAFB, offset: 0xAAFB, size: 0x8, addend: 0x0, symName: __ZNSt3__119__allocator_destroyB8ue170006INS_9allocatorINS_6vectorI4NodeNS1_IS3_EEEEEENS_16reverse_iteratorINS7_IPS5_EEEESA_EEvRT_T0_T1_, symObjAddr: 0x51B4, symBinAddr: 0x10000823C, symSize: 0x70 }
  - { offsetInCU: 0xAB60, offset: 0xAB60, size: 0x8, addend: 0x0, symName: __ZNSt3__1neB8ue170006INS_16reverse_iteratorIPNS_6vectorI4NodeNS_9allocatorIS3_EEEEEES8_EEbRKNS1_IT_EERKNS1_IT0_EE, symObjAddr: 0x5260, symBinAddr: 0x1000082E8, symSize: 0x60 }
  - { offsetInCU: 0xABAC, offset: 0xABAC, size: 0x8, addend: 0x0, symName: __ZNSt3__112__to_addressB8ue170006INS_16reverse_iteratorINS1_IPNS_6vectorI4NodeNS_9allocatorIS3_EEEEEEEEvEEu7__decayIDTclsr19__to_address_helperIT_EE6__callclsr3stdE7declvalIRKSA_EEEEESC_, symObjAddr: 0x52C0, symBinAddr: 0x100008348, symSize: 0x24 }
  - { offsetInCU: 0xAC0B, offset: 0xAC0B, size: 0x8, addend: 0x0, symName: __ZNSt3__19use_facetB8ue170006INS_5ctypeIcEEEERKT_RKNS_6localeE, symObjAddr: 0x5928, symBinAddr: 0x1000089B0, symSize: 0x2C }
  - { offsetInCU: 0xB21E, offset: 0xB21E, size: 0x8, addend: 0x0, symName: __ZNSt3__118__constexpr_strlenB8ue170006EPKc, symObjAddr: 0x5D70, symBinAddr: 0x100008DF8, symSize: 0x24 }
  - { offsetInCU: 0xB24A, offset: 0xB24A, size: 0x8, addend: 0x0, symName: __ZNSt3__1miB8ue170006IPK4NodeS3_EEDTmicldtfp_4baseEcldtfp0_4baseEERKNS_11__wrap_iterIT_EERKNS5_IT0_EE, symObjAddr: 0x5E74, symBinAddr: 0x100008EFC, symSize: 0x48 }
  - { offsetInCU: 0xB296, offset: 0xB296, size: 0x8, addend: 0x0, symName: __ZNSt3__14moveB8ue170006IP4NodeS2_EET0_T_S4_S3_, symObjAddr: 0x5F34, symBinAddr: 0x100008FBC, symSize: 0x40 }
  - { offsetInCU: 0xB2F0, offset: 0xB2F0, size: 0x8, addend: 0x0, symName: __ZNSt3__16__moveB8ue170006INS_17_ClassicAlgPolicyEP4NodeS3_S3_EENS_4pairIT0_T2_EES5_T1_S6_, symObjAddr: 0x60F4, symBinAddr: 0x10000917C, symSize: 0x44 }
  - { offsetInCU: 0xB35C, offset: 0xB35C, size: 0x8, addend: 0x0, symName: __ZNSt3__123__dispatch_copy_or_moveB8ue170006INS_17_ClassicAlgPolicyENS_11__move_loopIS1_EENS_14__move_trivialEP4NodeS6_S6_EENS_4pairIT2_T4_EES8_T3_S9_, symObjAddr: 0x6138, symBinAddr: 0x1000091C0, symSize: 0x44 }
  - { offsetInCU: 0xB3DA, offset: 0xB3DA, size: 0x8, addend: 0x0, symName: __ZNSt3__121__unwrap_and_dispatchB8ue170006INS_10__overloadINS_11__move_loopINS_17_ClassicAlgPolicyEEENS_14__move_trivialEEEP4NodeS8_S8_Li0EEENS_4pairIT0_T2_EESA_T1_SB_, symObjAddr: 0x617C, symBinAddr: 0x100009204, symSize: 0xB4 }
  - { offsetInCU: 0xB468, offset: 0xB468, size: 0x8, addend: 0x0, symName: __ZNSt3__114__unwrap_rangeB8ue170006IP4NodeS2_EENS_4pairIT0_S4_EET_S6_, symObjAddr: 0x6230, symBinAddr: 0x1000092B8, symSize: 0x60 }
  - { offsetInCU: 0xB5FD, offset: 0xB5FD, size: 0x8, addend: 0x0, symName: __ZNSt3__113__unwrap_iterB8ue170006IP4NodeNS_18__unwrap_iter_implIS2_Lb1EEELi0EEEDTclsrT0_8__unwrapclsr3stdE7declvalIT_EEEES6_, symObjAddr: 0x62D8, symBinAddr: 0x100009360, symSize: 0x24 }
  - { offsetInCU: 0xB641, offset: 0xB641, size: 0x8, addend: 0x0, symName: __ZNSt3__19make_pairB8ue170006IP4NodeS2_EENS_4pairINS_18__unwrap_ref_decayIT_E4typeENS4_IT0_E4typeEEEOS5_OS8_, symObjAddr: 0x62FC, symBinAddr: 0x100009384, symSize: 0x38 }
  - { offsetInCU: 0xB690, offset: 0xB690, size: 0x8, addend: 0x0, symName: __ZNSt3__114__rewrap_rangeB8ue170006IP4NodeS2_EET_S3_T0_, symObjAddr: 0x6334, symBinAddr: 0x1000093BC, symSize: 0x2C }
  - { offsetInCU: 0xB6DC, offset: 0xB6DC, size: 0x8, addend: 0x0, symName: __ZNSt3__113__rewrap_iterB8ue170006IP4NodeS2_NS_18__unwrap_iter_implIS2_Lb1EEEEET_S5_T0_, symObjAddr: 0x6360, symBinAddr: 0x1000093E8, symSize: 0x3C }
  - { offsetInCU: 0xB731, offset: 0xB731, size: 0x8, addend: 0x0, symName: __ZNSt3__119__copy_trivial_implB8ue170006I4NodeS1_EENS_4pairIPT_PT0_EES4_S4_S6_, symObjAddr: 0x639C, symBinAddr: 0x100009424, symSize: 0x80 }
  - { offsetInCU: 0xB799, offset: 0xB799, size: 0x8, addend: 0x0, symName: __ZNSt3__119__constexpr_memmoveB8ue170006I4NodeS1_Li0EEEPT_S3_PT0_NS_15__element_countE, symObjAddr: 0x641C, symBinAddr: 0x1000094A4, symSize: 0x64 }
  - { offsetInCU: 0xB807, offset: 0xB807, size: 0x8, addend: 0x0, symName: __ZNSt3__19make_pairB8ue170006IRP4NodeS2_EENS_4pairINS_18__unwrap_ref_decayIT_E4typeENS5_IT0_E4typeEEEOS6_OS9_, symObjAddr: 0x6480, symBinAddr: 0x100009508, symSize: 0x38 }
  - { offsetInCU: 0xB8A9, offset: 0xB8A9, size: 0x8, addend: 0x0, symName: __ZNSt3__142__uninitialized_allocator_move_if_noexceptB8ue170006INS_9allocatorI4NodeEENS_16reverse_iteratorIPS2_EES6_S2_vEET1_RT_T0_SA_S7_, symObjAddr: 0x6BD4, symBinAddr: 0x100009C5C, symSize: 0x78 }
  - { offsetInCU: 0xB926, offset: 0xB926, size: 0x8, addend: 0x0, symName: __ZNSt3__14swapB8ue170006IP4NodeEENS_9enable_ifIXaasr21is_move_constructibleIT_EE5valuesr18is_move_assignableIS4_EE5valueEvE4typeERS4_S7_, symObjAddr: 0x6C98, symBinAddr: 0x100009D20, symSize: 0x3C }
  - { offsetInCU: 0xB977, offset: 0xB977, size: 0x8, addend: 0x0, symName: __ZNSt3__14moveB8ue170006INS_16reverse_iteratorIP4NodeEES4_EET0_T_S6_S5_, symObjAddr: 0x6CD4, symBinAddr: 0x100009D5C, symSize: 0x78 }
  - { offsetInCU: 0xB9D1, offset: 0xB9D1, size: 0x8, addend: 0x0, symName: __ZNSt3__16__moveB8ue170006INS_17_ClassicAlgPolicyENS_16reverse_iteratorIP4NodeEES5_S5_EENS_4pairIT0_T2_EES7_T1_S8_, symObjAddr: 0x6D4C, symBinAddr: 0x100009DD4, symSize: 0x64 }
  - { offsetInCU: 0xBA3D, offset: 0xBA3D, size: 0x8, addend: 0x0, symName: __ZNSt3__123__dispatch_copy_or_moveB8ue170006INS_17_ClassicAlgPolicyENS_11__move_loopIS1_EENS_14__move_trivialENS_16reverse_iteratorIP4NodeEES8_S8_EENS_4pairIT2_T4_EESA_T3_SB_, symObjAddr: 0x6DB0, symBinAddr: 0x100009E38, symSize: 0x64 }
  - { offsetInCU: 0xBABB, offset: 0xBABB, size: 0x8, addend: 0x0, symName: __ZNSt3__121__unwrap_and_dispatchB8ue170006INS_10__overloadINS_11__move_loopINS_17_ClassicAlgPolicyEEENS_14__move_trivialEEENS_16reverse_iteratorIP4NodeEESA_SA_Li0EEENS_4pairIT0_T2_EESC_T1_SD_, symObjAddr: 0x6E14, symBinAddr: 0x100009E9C, symSize: 0x12C }
  - { offsetInCU: 0xBB4B, offset: 0xBB4B, size: 0x8, addend: 0x0, symName: __ZNSt3__114__unwrap_rangeB8ue170006INS_16reverse_iteratorIP4NodeEES4_EENS_4pairIT0_S6_EET_S8_, symObjAddr: 0x6F40, symBinAddr: 0x100009FC8, symSize: 0x84 }
  - { offsetInCU: 0xBCC6, offset: 0xBCC6, size: 0x8, addend: 0x0, symName: __ZNSt3__113__unwrap_iterB8ue170006INS_16reverse_iteratorIP4NodeEENS_18__unwrap_iter_implIS4_Lb0EEELi0EEEDTclsrT0_8__unwrapclsr3stdE7declvalIT_EEEES8_, symObjAddr: 0x706C, symBinAddr: 0x10000A0F4, symSize: 0x44 }
  - { offsetInCU: 0xBD0A, offset: 0xBD0A, size: 0x8, addend: 0x0, symName: __ZNSt3__19make_pairB8ue170006INS_16reverse_iteratorIP4NodeEES4_EENS_4pairINS_18__unwrap_ref_decayIT_E4typeENS6_IT0_E4typeEEEOS7_OSA_, symObjAddr: 0x70B0, symBinAddr: 0x10000A138, symSize: 0x38 }
  - { offsetInCU: 0xBD59, offset: 0xBD59, size: 0x8, addend: 0x0, symName: __ZNSt3__114__rewrap_rangeB8ue170006INS_16reverse_iteratorIP4NodeEES4_EET_S5_T0_, symObjAddr: 0x70E8, symBinAddr: 0x10000A170, symSize: 0x5C }
  - { offsetInCU: 0xBDA5, offset: 0xBDA5, size: 0x8, addend: 0x0, symName: __ZNSt3__113__rewrap_iterB8ue170006INS_16reverse_iteratorIP4NodeEES4_NS_18__unwrap_iter_implIS4_Lb0EEEEET_S7_T0_, symObjAddr: 0x7144, symBinAddr: 0x10000A1CC, symSize: 0x74 }
  - { offsetInCU: 0xBDFA, offset: 0xBDFA, size: 0x8, addend: 0x0, symName: __ZNSt3__1neB8ue170006IP4NodeS2_EEbRKNS_16reverse_iteratorIT_EERKNS3_IT0_EE, symObjAddr: 0x71B8, symBinAddr: 0x10000A240, symSize: 0x48 }
  - { offsetInCU: 0xBEF8, offset: 0xBEF8, size: 0x8, addend: 0x0, symName: __ZNSt3__130__uninitialized_allocator_copyB8ue170006INS_9allocatorI4NodeEEPS2_S4_S4_EET2_RT_T0_T1_S5_, symObjAddr: 0x7870, symBinAddr: 0x10000A8F8, symSize: 0x80 }
  - { offsetInCU: 0xBF95, offset: 0xBF95, size: 0x8, addend: 0x0, symName: __ZNSt3__135__uninitialized_allocator_copy_implB8ue170006INS_9allocatorI4NodeEES2_S2_S2_LPv0EEEPT2_RT_PT0_SA_S6_, symObjAddr: 0x78F0, symBinAddr: 0x10000A978, symSize: 0x38 }
  - { offsetInCU: 0xC016, offset: 0xC016, size: 0x8, addend: 0x0, symName: __ZNSt3__14copyB8ue170006IP4NodeS2_EET0_T_S4_S3_, symObjAddr: 0x7928, symBinAddr: 0x10000A9B0, symSize: 0x40 }
  - { offsetInCU: 0xC070, offset: 0xC070, size: 0x8, addend: 0x0, symName: __ZNSt3__16__copyB8ue170006INS_17_ClassicAlgPolicyEP4NodeS3_S3_EENS_4pairIT0_T2_EES5_T1_S6_, symObjAddr: 0x7968, symBinAddr: 0x10000A9F0, symSize: 0x44 }
  - { offsetInCU: 0xC0DC, offset: 0xC0DC, size: 0x8, addend: 0x0, symName: __ZNSt3__123__dispatch_copy_or_moveB8ue170006INS_17_ClassicAlgPolicyENS_11__copy_loopIS1_EENS_14__copy_trivialEP4NodeS6_S6_EENS_4pairIT2_T4_EES8_T3_S9_, symObjAddr: 0x79AC, symBinAddr: 0x10000AA34, symSize: 0x44 }
  - { offsetInCU: 0xC15A, offset: 0xC15A, size: 0x8, addend: 0x0, symName: __ZNSt3__121__unwrap_and_dispatchB8ue170006INS_10__overloadINS_11__copy_loopINS_17_ClassicAlgPolicyEEENS_14__copy_trivialEEEP4NodeS8_S8_Li0EEENS_4pairIT0_T2_EESA_T1_SB_, symObjAddr: 0x79F0, symBinAddr: 0x10000AA78, symSize: 0xB4 }
  - { offsetInCU: 0xC22E, offset: 0xC22E, size: 0x8, addend: 0x0, symName: __ZNSt3__116__pad_and_outputB8ue170006IcNS_11char_traitsIcEEEENS_19ostreambuf_iteratorIT_T0_EES6_PKS4_S8_S8_RNS_8ios_baseES4_, symObjAddr: 0x7CF4, symBinAddr: 0x10000AD7C, symSize: 0x240 }
  - { offsetInCU: 0xC2FD, offset: 0xC2FD, size: 0x8, addend: 0x0, symName: __ZNSt3__112__to_addressB8ue170006IKcEEPT_S3_, symObjAddr: 0x80F4, symBinAddr: 0x10000B17C, symSize: 0x14 }
  - { offsetInCU: 0xC6E3, offset: 0xC6E3, size: 0x8, addend: 0x0, symName: __ZSt28__throw_bad_array_new_lengthB8ue170006v, symObjAddr: 0x3DEC, symBinAddr: 0x100006E74, symSize: 0x34 }
  - { offsetInCU: 0xCAF8, offset: 0xCAF8, size: 0x8, addend: 0x0, symName: _open_list, symObjAddr: 0x493E8, symBinAddr: 0x100010058, symSize: 0x0 }
  - { offsetInCU: 0xCB0D, offset: 0xCB0D, size: 0x8, addend: 0x0, symName: _close_list, symObjAddr: 0x49400, symBinAddr: 0x100010070, symSize: 0x0 }
  - { offsetInCU: 0xCB22, offset: 0xCB22, size: 0x8, addend: 0x0, symName: _m, symObjAddr: 0x49418, symBinAddr: 0x100010088, symSize: 0x0 }
  - { offsetInCU: 0xCB37, offset: 0xCB37, size: 0x8, addend: 0x0, symName: _n, symObjAddr: 0x4941C, symBinAddr: 0x10001008C, symSize: 0x0 }
  - { offsetInCU: 0xCB4C, offset: 0xCB4C, size: 0x8, addend: 0x0, symName: _number_of_zero, symObjAddr: 0x49420, symBinAddr: 0x100010090, symSize: 0x0 }
  - { offsetInCU: 0xCB61, offset: 0xCB61, size: 0x8, addend: 0x0, symName: _row1, symObjAddr: 0x49424, symBinAddr: 0x100010094, symSize: 0x0 }
  - { offsetInCU: 0xCB76, offset: 0xCB76, size: 0x8, addend: 0x0, symName: _col1, symObjAddr: 0x49428, symBinAddr: 0x100010098, symSize: 0x0 }
  - { offsetInCU: 0xCB8B, offset: 0xCB8B, size: 0x8, addend: 0x0, symName: _row2, symObjAddr: 0x4942C, symBinAddr: 0x10001009C, symSize: 0x0 }
  - { offsetInCU: 0xCBA0, offset: 0xCBA0, size: 0x8, addend: 0x0, symName: _col2, symObjAddr: 0x49430, symBinAddr: 0x1000100A0, symSize: 0x0 }
  - { offsetInCU: 0xCBB5, offset: 0xCBB5, size: 0x8, addend: 0x0, symName: _number_of_obstacle, symObjAddr: 0x49434, symBinAddr: 0x1000100A4, symSize: 0x0 }
  - { offsetInCU: 0xCBCA, offset: 0xCBCA, size: 0x8, addend: 0x0, symName: _flag, symObjAddr: 0x49438, symBinAddr: 0x1000100A8, symSize: 0x0 }
  - { offsetInCU: 0xCBDF, offset: 0xCBDF, size: 0x8, addend: 0x0, symName: _source, symObjAddr: 0x8678, symBinAddr: 0x100010000, symSize: 0x0 }
  - { offsetInCU: 0xCBFF, offset: 0xCBFF, size: 0x8, addend: 0x0, symName: _target, symObjAddr: 0x8698, symBinAddr: 0x100010020, symSize: 0x0 }
  - { offsetInCU: 0xCF1F, offset: 0xCF1F, size: 0x8, addend: 0x0, symName: __ZNSt3__16vectorINS0_I4NodeNS_9allocatorIS1_EEEENS2_IS4_EEE26__swap_out_circular_bufferERNS_14__split_bufferIS4_RS5_EE, symObjAddr: 0x4414, symBinAddr: 0x10000749C, symSize: 0x110 }
  - { offsetInCU: 0xCFEA, offset: 0xCFEA, size: 0x8, addend: 0x0, symName: __Z3powB8ue170006IiiENSt3__19enable_ifIXaasr3std13is_arithmeticIT_EE5valuesr3std13is_arithmeticIT0_EE5valueENS0_9__promoteIS2_S3_vEEE4type4typeES2_S3_, symObjAddr: 0x13E0, symBinAddr: 0x100004468, symSize: 0x44 }
  - { offsetInCU: 0xD084, offset: 0xD084, size: 0x8, addend: 0x0, symName: __ZNSt3__16vectorI4NodeNS_9allocatorIS1_EEE26__swap_out_circular_bufferERNS_14__split_bufferIS1_RS3_EE, symObjAddr: 0x686C, symBinAddr: 0x1000098F4, symSize: 0x110 }
  - { offsetInCU: 0xF715, offset: 0xF715, size: 0x8, addend: 0x0, symName: __ZNSt3__16vectorINS0_I4NodeNS_9allocatorIS1_EEEENS2_IS4_EEEC1B8ue170006Ev, symObjAddr: 0x0, symBinAddr: 0x100003088, symSize: 0x2C }
  - { offsetInCU: 0xF73F, offset: 0xF73F, size: 0x8, addend: 0x0, symName: __ZNSt3__16vectorINS0_I4NodeNS_9allocatorIS1_EEEENS2_IS4_EEED1B8ue170006Ev, symObjAddr: 0x2C, symBinAddr: 0x1000030B4, symSize: 0x2C }
  - { offsetInCU: 0xF769, offset: 0xF769, size: 0x8, addend: 0x0, symName: __ZNSt3__16vectorI4NodeNS_9allocatorIS1_EEEC1B8ue170006Ev, symObjAddr: 0x58, symBinAddr: 0x1000030E0, symSize: 0x2C }
  - { offsetInCU: 0xF793, offset: 0xF793, size: 0x8, addend: 0x0, symName: __ZNSt3__16vectorI4NodeNS_9allocatorIS1_EEED1B8ue170006Ev, symObjAddr: 0x84, symBinAddr: 0x10000310C, symSize: 0x2C }
  - { offsetInCU: 0xF7BD, offset: 0xF7BD, size: 0x8, addend: 0x0, symName: __Z5inputv, symObjAddr: 0xB0, symBinAddr: 0x100003138, symSize: 0x650 }
  - { offsetInCU: 0xFA36, offset: 0xFA36, size: 0x8, addend: 0x0, symName: __ZNSt3__113basic_fstreamIcNS_11char_traitsIcEEEC1Ev, symObjAddr: 0x700, symBinAddr: 0x100003788, symSize: 0x100 }
  - { offsetInCU: 0xFA62, offset: 0xFA62, size: 0x8, addend: 0x0, symName: __ZNSt3__113basic_fstreamIcNS_11char_traitsIcEEE4openEPKcj, symObjAddr: 0x800, symBinAddr: 0x100003888, symSize: 0x84 }
  - { offsetInCU: 0xFAAD, offset: 0xFAAD, size: 0x8, addend: 0x0, symName: __ZN4NodeC1Ev, symObjAddr: 0x884, symBinAddr: 0x10000390C, symSize: 0x2C }
  - { offsetInCU: 0xFAD9, offset: 0xFAD9, size: 0x8, addend: 0x0, symName: __ZNSt3__16vectorI4NodeNS_9allocatorIS1_EEEC1EmRKS1_, symObjAddr: 0x8B0, symBinAddr: 0x100003938, symSize: 0x3C }
  - { offsetInCU: 0xFB23, offset: 0xFB23, size: 0x8, addend: 0x0, symName: __ZNSt3__16vectorI4NodeNS_9allocatorIS1_EEEixB8ue170006Em, symObjAddr: 0x8EC, symBinAddr: 0x100003974, symSize: 0x24 }
  - { offsetInCU: 0xFB5A, offset: 0xFB5A, size: 0x8, addend: 0x0, symName: __ZNSt3__16vectorINS0_I4NodeNS_9allocatorIS1_EEEENS2_IS4_EEE9push_backB8ue170006ERKS4_, symObjAddr: 0x910, symBinAddr: 0x100003998, symSize: 0x6C }
  - { offsetInCU: 0xFB91, offset: 0xFB91, size: 0x8, addend: 0x0, symName: __ZNSt3__16vectorINS0_I4NodeNS_9allocatorIS1_EEEENS2_IS4_EEEixB8ue170006Em, symObjAddr: 0x97C, symBinAddr: 0x100003A04, symSize: 0x2C }
  - { offsetInCU: 0xFBC8, offset: 0xFBC8, size: 0x8, addend: 0x0, symName: __ZNSt3__112basic_stringIcNS_11char_traitsIcEENS_9allocatorIcEEEC1B8ue170006Ev, symObjAddr: 0xB38, symBinAddr: 0x100003BC0, symSize: 0x2C }
  - { offsetInCU: 0xFBF7, offset: 0xFBF7, size: 0x8, addend: 0x0, symName: __ZNSt3__113basic_fstreamIcNS_11char_traitsIcEEED1Ev, symObjAddr: 0xF80, symBinAddr: 0x100004008, symSize: 0x40 }
  - { offsetInCU: 0xFC22, offset: 0xFC22, size: 0x8, addend: 0x0, symName: __Z8is_valid4Node, symObjAddr: 0xFC0, symBinAddr: 0x100004048, symSize: 0x270 }
  - { offsetInCU: 0xFCFA, offset: 0xFCFA, size: 0x8, addend: 0x0, symName: __ZNSt3__16vectorI4NodeNS_9allocatorIS1_EEE5beginB8ue170006Ev, symObjAddr: 0x1230, symBinAddr: 0x1000042B8, symSize: 0x30 }
  - { offsetInCU: 0xFD22, offset: 0xFD22, size: 0x8, addend: 0x0, symName: __ZNSt3__16vectorI4NodeNS_9allocatorIS1_EEE3endB8ue170006Ev, symObjAddr: 0x1260, symBinAddr: 0x1000042E8, symSize: 0x30 }
  - { offsetInCU: 0xFD4A, offset: 0xFD4A, size: 0x8, addend: 0x0, symName: __ZNKSt3__111__wrap_iterIP4NodeEdeB8ue170006Ev, symObjAddr: 0x12C4, symBinAddr: 0x10000434C, symSize: 0x18 }
  - { offsetInCU: 0xFD70, offset: 0xFD70, size: 0x8, addend: 0x0, symName: __ZNSt3__111__wrap_iterIP4NodeEppB8ue170006Ev, symObjAddr: 0x12DC, symBinAddr: 0x100004364, symSize: 0x20 }
  - { offsetInCU: 0xFD95, offset: 0xFD95, size: 0x8, addend: 0x0, symName: __Z11calculate_gR4Node, symObjAddr: 0x12FC, symBinAddr: 0x100004384, symSize: 0x6C }
  - { offsetInCU: 0xFDC1, offset: 0xFDC1, size: 0x8, addend: 0x0, symName: __Z11calculate_hR4Node, symObjAddr: 0x1368, symBinAddr: 0x1000043F0, symSize: 0x78 }
  - { offsetInCU: 0xFDEE, offset: 0xFDEE, size: 0x8, addend: 0x0, symName: __Z10find_min_fv, symObjAddr: 0x1424, symBinAddr: 0x1000044AC, symSize: 0x1AC }
  - { offsetInCU: 0xFE42, offset: 0xFE42, size: 0x8, addend: 0x0, symName: __ZNKSt3__111__wrap_iterIP4NodeEptB8ue170006Ev, symObjAddr: 0x1618, symBinAddr: 0x1000046A0, symSize: 0x28 }
  - { offsetInCU: 0xFE68, offset: 0xFE68, size: 0x8, addend: 0x0, symName: __ZNSt3__111__wrap_iterIP4NodeEppB8ue170006Ei, symObjAddr: 0x1640, symBinAddr: 0x1000046C8, symSize: 0x34 }
  - { offsetInCU: 0xFEA7, offset: 0xFEA7, size: 0x8, addend: 0x0, symName: __ZNSt3__16vectorI4NodeNS_9allocatorIS1_EEE5eraseB8ue170006ENS_11__wrap_iterIPKS1_EE, symObjAddr: 0x1674, symBinAddr: 0x1000046FC, symSize: 0x94 }
  - { offsetInCU: 0xFF06, offset: 0xFF06, size: 0x8, addend: 0x0, symName: __ZNSt3__111__wrap_iterIPK4NodeEC1B8ue170006IPS1_EERKNS0_IT_EEPNS_9enable_ifIXsr14is_convertibleIS7_S3_EE5valueEvE4typeE, symObjAddr: 0x1708, symBinAddr: 0x100004790, symSize: 0x3C }
  - { offsetInCU: 0xFF52, offset: 0xFF52, size: 0x8, addend: 0x0, symName: __ZNSt3__16vectorI4NodeNS_9allocatorIS1_EEE9push_backB8ue170006ERKS1_, symObjAddr: 0x1744, symBinAddr: 0x1000047CC, symSize: 0x6C }
  - { offsetInCU: 0xFF89, offset: 0xFF89, size: 0x8, addend: 0x0, symName: __Z13put_open_list4Node, symObjAddr: 0x17B0, symBinAddr: 0x100004838, symSize: 0x388 }
  - { offsetInCU: 0x10032, offset: 0x10032, size: 0x8, addend: 0x0, symName: __Z9is_targetR4Node, symObjAddr: 0x1B38, symBinAddr: 0x100004BC0, symSize: 0x88 }
  - { offsetInCU: 0x1005E, offset: 0x1005E, size: 0x8, addend: 0x0, symName: __Z6is_dupR4Node, symObjAddr: 0x1BC0, symBinAddr: 0x100004C48, symSize: 0xF0 }
  - { offsetInCU: 0x100DE, offset: 0x100DE, size: 0x8, addend: 0x0, symName: __ZNKSt3__16vectorI4NodeNS_9allocatorIS1_EEE4sizeB8ue170006Ev, symObjAddr: 0x1CB0, symBinAddr: 0x100004D38, symSize: 0x28 }
  - { offsetInCU: 0x10104, offset: 0x10104, size: 0x8, addend: 0x0, symName: __Z6outputv, symObjAddr: 0x1CD8, symBinAddr: 0x100004D60, symSize: 0x5C }
  - { offsetInCU: 0x1011E, offset: 0x1011E, size: 0x8, addend: 0x0, symName: __ZNSt3__113basic_ostreamIcNS_11char_traitsIcEEElsB8ue170006EPFRS3_S4_E, symObjAddr: 0x1D34, symBinAddr: 0x100004DBC, symSize: 0x2C }
  - { offsetInCU: 0x10152, offset: 0x10152, size: 0x8, addend: 0x0, symName: __Z9printGridv, symObjAddr: 0x1DB8, symBinAddr: 0x100004E40, symSize: 0x174 }
  - { offsetInCU: 0x101F9, offset: 0x101F9, size: 0x8, addend: 0x0, symName: __ZNSt3__16vectorINS0_I4NodeNS_9allocatorIS1_EEEENS2_IS4_EEE5beginB8ue170006Ev, symObjAddr: 0x1F2C, symBinAddr: 0x100004FB4, symSize: 0x30 }
  - { offsetInCU: 0x10221, offset: 0x10221, size: 0x8, addend: 0x0, symName: __ZNSt3__16vectorINS0_I4NodeNS_9allocatorIS1_EEEENS2_IS4_EEE3endB8ue170006Ev, symObjAddr: 0x1F5C, symBinAddr: 0x100004FE4, symSize: 0x30 }
  - { offsetInCU: 0x10249, offset: 0x10249, size: 0x8, addend: 0x0, symName: __ZNKSt3__111__wrap_iterIPNS_6vectorI4NodeNS_9allocatorIS2_EEEEEdeB8ue170006Ev, symObjAddr: 0x1FC0, symBinAddr: 0x100005048, symSize: 0x18 }
  - { offsetInCU: 0x1026F, offset: 0x1026F, size: 0x8, addend: 0x0, symName: __ZNSt3__16vectorI4NodeNS_9allocatorIS1_EEEC1ERKS4_, symObjAddr: 0x1FD8, symBinAddr: 0x100005060, symSize: 0x34 }
  - { offsetInCU: 0x102AA, offset: 0x102AA, size: 0x8, addend: 0x0, symName: __ZNSt3__111__wrap_iterIPNS_6vectorI4NodeNS_9allocatorIS2_EEEEEppB8ue170006Ev, symObjAddr: 0x2054, symBinAddr: 0x1000050DC, symSize: 0x20 }
  - { offsetInCU: 0x102D0, offset: 0x102D0, size: 0x8, addend: 0x0, symName: __Z6printFv, symObjAddr: 0x2074, symBinAddr: 0x1000050FC, symSize: 0x174 }
  - { offsetInCU: 0x10377, offset: 0x10377, size: 0x8, addend: 0x0, symName: _main, symObjAddr: 0x21E8, symBinAddr: 0x100005270, symSize: 0x64 }
  - { offsetInCU: 0x10392, offset: 0x10392, size: 0x8, addend: 0x0, symName: __ZN4NodeC2Ev, symObjAddr: 0x224C, symBinAddr: 0x1000052D4, symSize: 0x38 }
  - { offsetInCU: 0x103CD, offset: 0x103CD, size: 0x8, addend: 0x0, symName: __ZNKSt3__16__lessIvvEclB8ue170006IiiEEbRKT_RKT0_, symObjAddr: 0x22D8, symBinAddr: 0x100005360, symSize: 0x34 }
  - { offsetInCU: 0x10421, offset: 0x10421, size: 0x8, addend: 0x0, symName: __ZNSt3__113basic_fstreamIcNS_11char_traitsIcEEED2Ev, symObjAddr: 0x2360, symBinAddr: 0x1000053E8, symSize: 0x6C }
  - { offsetInCU: 0x1045A, offset: 0x1045A, size: 0x8, addend: 0x0, symName: __ZThn16_NSt3__113basic_fstreamIcNS_11char_traitsIcEEED1Ev, symObjAddr: 0x23CC, symBinAddr: 0x100005454, symSize: 0x1C }
  - { offsetInCU: 0x10470, offset: 0x10470, size: 0x8, addend: 0x0, symName: __ZTv0_n24_NSt3__113basic_fstreamIcNS_11char_traitsIcEEED1Ev, symObjAddr: 0x23E8, symBinAddr: 0x100005470, symSize: 0x28 }
  - { offsetInCU: 0x10486, offset: 0x10486, size: 0x8, addend: 0x0, symName: __ZNSt3__113basic_fstreamIcNS_11char_traitsIcEEED0Ev, symObjAddr: 0x2410, symBinAddr: 0x100005498, symSize: 0x30 }
  - { offsetInCU: 0x104B2, offset: 0x104B2, size: 0x8, addend: 0x0, symName: __ZThn16_NSt3__113basic_fstreamIcNS_11char_traitsIcEEED0Ev, symObjAddr: 0x2440, symBinAddr: 0x1000054C8, symSize: 0x18 }
  - { offsetInCU: 0x104C8, offset: 0x104C8, size: 0x8, addend: 0x0, symName: __ZTv0_n24_NSt3__113basic_fstreamIcNS_11char_traitsIcEEED0Ev, symObjAddr: 0x2458, symBinAddr: 0x1000054E0, symSize: 0x20 }
  - { offsetInCU: 0x104DE, offset: 0x104DE, size: 0x8, addend: 0x0, symName: __ZNKSt3__111__wrap_iterIP4NodeE4baseB8ue170006Ev, symObjAddr: 0x24C0, symBinAddr: 0x100005548, symSize: 0x18 }
  - { offsetInCU: 0x10504, offset: 0x10504, size: 0x8, addend: 0x0, symName: __ZNSt3__111__wrap_iterIPK4NodeEC2B8ue170006IPS1_EERKNS0_IT_EEPNS_9enable_ifIXsr14is_convertibleIS7_S3_EE5valueEvE4typeE, symObjAddr: 0x24EC, symBinAddr: 0x100005574, symSize: 0x40 }
  - { offsetInCU: 0x10550, offset: 0x10550, size: 0x8, addend: 0x0, symName: __ZNKSt3__111__wrap_iterIPNS_6vectorI4NodeNS_9allocatorIS2_EEEEE4baseB8ue170006Ev, symObjAddr: 0x2574, symBinAddr: 0x1000055FC, symSize: 0x18 }
  - { offsetInCU: 0x10576, offset: 0x10576, size: 0x8, addend: 0x0, symName: __ZNSt3__112basic_stringIcNS_11char_traitsIcEENS_9allocatorIcEEEC2B8ue170006Ev, symObjAddr: 0x258C, symBinAddr: 0x100005614, symSize: 0x48 }
  - { offsetInCU: 0x105A5, offset: 0x105A5, size: 0x8, addend: 0x0, symName: __ZNSt3__117__compressed_pairINS_12basic_stringIcNS_11char_traitsIcEENS_9allocatorIcEEE5__repES5_EC1B8ue170006INS_18__default_init_tagESA_EEOT_OT0_, symObjAddr: 0x25D4, symBinAddr: 0x10000565C, symSize: 0x3C }
  - { offsetInCU: 0x105FD, offset: 0x105FD, size: 0x8, addend: 0x0, symName: __ZNSt3__112basic_stringIcNS_11char_traitsIcEENS_9allocatorIcEEE14__default_initB8ue170006Ev, symObjAddr: 0x261C, symBinAddr: 0x1000056A4, symSize: 0x40 }
  - { offsetInCU: 0x10623, offset: 0x10623, size: 0x8, addend: 0x0, symName: __ZNSt3__117__compressed_pairINS_12basic_stringIcNS_11char_traitsIcEENS_9allocatorIcEEE5__repES5_EC2B8ue170006INS_18__default_init_tagESA_EEOT_OT0_, symObjAddr: 0x265C, symBinAddr: 0x1000056E4, symSize: 0x3C }
  - { offsetInCU: 0x1067B, offset: 0x1067B, size: 0x8, addend: 0x0, symName: __ZNSt3__122__compressed_pair_elemINS_12basic_stringIcNS_11char_traitsIcEENS_9allocatorIcEEE5__repELi0ELb0EEC2B8ue170006ENS_18__default_init_tagE, symObjAddr: 0x2698, symBinAddr: 0x100005720, symSize: 0x14 }
  - { offsetInCU: 0x106B0, offset: 0x106B0, size: 0x8, addend: 0x0, symName: __ZNSt3__122__compressed_pair_elemINS_9allocatorIcEELi1ELb1EEC2B8ue170006ENS_18__default_init_tagE, symObjAddr: 0x26AC, symBinAddr: 0x100005734, symSize: 0x2C }
  - { offsetInCU: 0x106E5, offset: 0x106E5, size: 0x8, addend: 0x0, symName: __ZNSt3__19allocatorIcEC2B8ue170006Ev, symObjAddr: 0x26D8, symBinAddr: 0x100005760, symSize: 0x2C }
  - { offsetInCU: 0x1070F, offset: 0x1070F, size: 0x8, addend: 0x0, symName: __ZNSt3__116__non_trivial_ifILb1ENS_9allocatorIcEEEC2B8ue170006Ev, symObjAddr: 0x2704, symBinAddr: 0x10000578C, symSize: 0x14 }
  - { offsetInCU: 0x10739, offset: 0x10739, size: 0x8, addend: 0x0, symName: __ZNSt3__117__compressed_pairINS_12basic_stringIcNS_11char_traitsIcEENS_9allocatorIcEEE5__repES5_E5firstB8ue170006Ev, symObjAddr: 0x2718, symBinAddr: 0x1000057A0, symSize: 0x24 }
  - { offsetInCU: 0x1075F, offset: 0x1075F, size: 0x8, addend: 0x0, symName: __ZNSt3__122__compressed_pair_elemINS_12basic_stringIcNS_11char_traitsIcEENS_9allocatorIcEEE5__repELi0ELb0EE5__getB8ue170006Ev, symObjAddr: 0x273C, symBinAddr: 0x1000057C4, symSize: 0x14 }
  - { offsetInCU: 0x10785, offset: 0x10785, size: 0x8, addend: 0x0, symName: __ZNSt3__16vectorINS0_I4NodeNS_9allocatorIS1_EEEENS2_IS4_EEEC2B8ue170006Ev, symObjAddr: 0x2750, symBinAddr: 0x1000057D8, symSize: 0x4C }
  - { offsetInCU: 0x107B4, offset: 0x107B4, size: 0x8, addend: 0x0, symName: __ZNSt3__117__compressed_pairIPNS_6vectorI4NodeNS_9allocatorIS2_EEEENS3_IS5_EEEC1B8ue170006IDnNS_18__default_init_tagEEEOT_OT0_, symObjAddr: 0x279C, symBinAddr: 0x100005824, symSize: 0x3C }
  - { offsetInCU: 0x1080C, offset: 0x1080C, size: 0x8, addend: 0x0, symName: __ZNSt3__117__compressed_pairIPNS_6vectorI4NodeNS_9allocatorIS2_EEEENS3_IS5_EEEC2B8ue170006IDnNS_18__default_init_tagEEEOT_OT0_, symObjAddr: 0x27D8, symBinAddr: 0x100005860, symSize: 0x40 }
  - { offsetInCU: 0x10864, offset: 0x10864, size: 0x8, addend: 0x0, symName: __ZNSt3__122__compressed_pair_elemIPNS_6vectorI4NodeNS_9allocatorIS2_EEEELi0ELb0EEC2B8ue170006IDnvEEOT_, symObjAddr: 0x2818, symBinAddr: 0x1000058A0, symSize: 0x1C }
  - { offsetInCU: 0x108A6, offset: 0x108A6, size: 0x8, addend: 0x0, symName: __ZNSt3__122__compressed_pair_elemINS_9allocatorINS_6vectorI4NodeNS1_IS3_EEEEEELi1ELb1EEC2B8ue170006ENS_18__default_init_tagE, symObjAddr: 0x2834, symBinAddr: 0x1000058BC, symSize: 0x2C }
  - { offsetInCU: 0x108DB, offset: 0x108DB, size: 0x8, addend: 0x0, symName: __ZNSt3__19allocatorINS_6vectorI4NodeNS0_IS2_EEEEEC2B8ue170006Ev, symObjAddr: 0x2860, symBinAddr: 0x1000058E8, symSize: 0x2C }
  - { offsetInCU: 0x10905, offset: 0x10905, size: 0x8, addend: 0x0, symName: __ZNSt3__116__non_trivial_ifILb1ENS_9allocatorINS_6vectorI4NodeNS1_IS3_EEEEEEEC2B8ue170006Ev, symObjAddr: 0x288C, symBinAddr: 0x100005914, symSize: 0x14 }
  - { offsetInCU: 0x1092F, offset: 0x1092F, size: 0x8, addend: 0x0, symName: __ZNSt3__16vectorINS0_I4NodeNS_9allocatorIS1_EEEENS2_IS4_EEED2B8ue170006Ev, symObjAddr: 0x28A0, symBinAddr: 0x100005928, symSize: 0x44 }
  - { offsetInCU: 0x10959, offset: 0x10959, size: 0x8, addend: 0x0, symName: __ZNSt3__16vectorINS0_I4NodeNS_9allocatorIS1_EEEENS2_IS4_EEE16__destroy_vectorC1B8ue170006ERS6_, symObjAddr: 0x28E4, symBinAddr: 0x10000596C, symSize: 0x34 }
  - { offsetInCU: 0x10992, offset: 0x10992, size: 0x8, addend: 0x0, symName: __ZNSt3__16vectorINS0_I4NodeNS_9allocatorIS1_EEEENS2_IS4_EEE16__destroy_vectorclB8ue170006Ev, symObjAddr: 0x2918, symBinAddr: 0x1000059A0, symSize: 0x90 }
  - { offsetInCU: 0x109B8, offset: 0x109B8, size: 0x8, addend: 0x0, symName: __ZNSt3__16vectorINS0_I4NodeNS_9allocatorIS1_EEEENS2_IS4_EEE16__destroy_vectorC2B8ue170006ERS6_, symObjAddr: 0x29A8, symBinAddr: 0x100005A30, symSize: 0x20 }
  - { offsetInCU: 0x109F1, offset: 0x109F1, size: 0x8, addend: 0x0, symName: __ZNSt3__16vectorINS0_I4NodeNS_9allocatorIS1_EEEENS2_IS4_EEE7__clearB8ue170006Ev, symObjAddr: 0x29C8, symBinAddr: 0x100005A50, symSize: 0x28 }
  - { offsetInCU: 0x10A17, offset: 0x10A17, size: 0x8, addend: 0x0, symName: __ZNKSt3__16vectorINS0_I4NodeNS_9allocatorIS1_EEEENS2_IS4_EEE17__annotate_deleteB8ue170006Ev, symObjAddr: 0x29F0, symBinAddr: 0x100005A78, symSize: 0xD4 }
  - { offsetInCU: 0x10A3D, offset: 0x10A3D, size: 0x8, addend: 0x0, symName: __ZNSt3__116allocator_traitsINS_9allocatorINS_6vectorI4NodeNS1_IS3_EEEEEEE10deallocateB8ue170006ERS6_PS5_m, symObjAddr: 0x2AC4, symBinAddr: 0x100005B4C, symSize: 0x34 }
  - { offsetInCU: 0x10A7F, offset: 0x10A7F, size: 0x8, addend: 0x0, symName: __ZNSt3__16vectorINS0_I4NodeNS_9allocatorIS1_EEEENS2_IS4_EEE7__allocB8ue170006Ev, symObjAddr: 0x2AF8, symBinAddr: 0x100005B80, symSize: 0x28 }
  - { offsetInCU: 0x10AA5, offset: 0x10AA5, size: 0x8, addend: 0x0, symName: __ZNKSt3__16vectorINS0_I4NodeNS_9allocatorIS1_EEEENS2_IS4_EEE8capacityB8ue170006Ev, symObjAddr: 0x2B20, symBinAddr: 0x100005BA8, symSize: 0x40 }
  - { offsetInCU: 0x10ACB, offset: 0x10ACB, size: 0x8, addend: 0x0, symName: __ZNSt3__16vectorINS0_I4NodeNS_9allocatorIS1_EEEENS2_IS4_EEE22__base_destruct_at_endB8ue170006EPS4_, symObjAddr: 0x2B60, symBinAddr: 0x100005BE8, symSize: 0x8C }
  - { offsetInCU: 0x10B0F, offset: 0x10B0F, size: 0x8, addend: 0x0, symName: __ZNSt3__116allocator_traitsINS_9allocatorINS_6vectorI4NodeNS1_IS3_EEEEEEE7destroyB8ue170006IS5_vEEvRS6_PT_, symObjAddr: 0x2BEC, symBinAddr: 0x100005C74, symSize: 0x2C }
  - { offsetInCU: 0x10B4C, offset: 0x10B4C, size: 0x8, addend: 0x0, symName: __ZNSt3__19allocatorINS_6vectorI4NodeNS0_IS2_EEEEE7destroyB8ue170006EPS4_, symObjAddr: 0x2C2C, symBinAddr: 0x100005CB4, symSize: 0x28 }
  - { offsetInCU: 0x10B80, offset: 0x10B80, size: 0x8, addend: 0x0, symName: __ZNKSt3__16vectorINS0_I4NodeNS_9allocatorIS1_EEEENS2_IS4_EEE31__annotate_contiguous_containerB8ue170006EPKvS8_S8_S8_, symObjAddr: 0x2C54, symBinAddr: 0x100005CDC, symSize: 0x20 }
  - { offsetInCU: 0x10BD2, offset: 0x10BD2, size: 0x8, addend: 0x0, symName: __ZNKSt3__16vectorINS0_I4NodeNS_9allocatorIS1_EEEENS2_IS4_EEE4dataB8ue170006Ev, symObjAddr: 0x2C74, symBinAddr: 0x100005CFC, symSize: 0x28 }
  - { offsetInCU: 0x10BF8, offset: 0x10BF8, size: 0x8, addend: 0x0, symName: __ZNKSt3__16vectorINS0_I4NodeNS_9allocatorIS1_EEEENS2_IS4_EEE4sizeB8ue170006Ev, symObjAddr: 0x2C9C, symBinAddr: 0x100005D24, symSize: 0x28 }
  - { offsetInCU: 0x10C1E, offset: 0x10C1E, size: 0x8, addend: 0x0, symName: __ZNSt3__19allocatorINS_6vectorI4NodeNS0_IS2_EEEEE10deallocateB8ue170006EPS4_m, symObjAddr: 0x2CC4, symBinAddr: 0x100005D4C, symSize: 0x44 }
  - { offsetInCU: 0x10C60, offset: 0x10C60, size: 0x8, addend: 0x0, symName: __ZNSt3__117__compressed_pairIPNS_6vectorI4NodeNS_9allocatorIS2_EEEENS3_IS5_EEE6secondB8ue170006Ev, symObjAddr: 0x2D84, symBinAddr: 0x100005E0C, symSize: 0x24 }
  - { offsetInCU: 0x10C86, offset: 0x10C86, size: 0x8, addend: 0x0, symName: __ZNSt3__122__compressed_pair_elemINS_9allocatorINS_6vectorI4NodeNS1_IS3_EEEEEELi1ELb1EE5__getB8ue170006Ev, symObjAddr: 0x2DA8, symBinAddr: 0x100005E30, symSize: 0x14 }
  - { offsetInCU: 0x10CAC, offset: 0x10CAC, size: 0x8, addend: 0x0, symName: __ZNKSt3__16vectorINS0_I4NodeNS_9allocatorIS1_EEEENS2_IS4_EEE9__end_capB8ue170006Ev, symObjAddr: 0x2DBC, symBinAddr: 0x100005E44, symSize: 0x28 }
  - { offsetInCU: 0x10CD2, offset: 0x10CD2, size: 0x8, addend: 0x0, symName: __ZNKSt3__117__compressed_pairIPNS_6vectorI4NodeNS_9allocatorIS2_EEEENS3_IS5_EEE5firstB8ue170006Ev, symObjAddr: 0x2DE4, symBinAddr: 0x100005E6C, symSize: 0x24 }
  - { offsetInCU: 0x10CF8, offset: 0x10CF8, size: 0x8, addend: 0x0, symName: __ZNKSt3__122__compressed_pair_elemIPNS_6vectorI4NodeNS_9allocatorIS2_EEEELi0ELb0EE5__getB8ue170006Ev, symObjAddr: 0x2E08, symBinAddr: 0x100005E90, symSize: 0x14 }
  - { offsetInCU: 0x10D1E, offset: 0x10D1E, size: 0x8, addend: 0x0, symName: __ZNSt3__16vectorI4NodeNS_9allocatorIS1_EEEC2B8ue170006Ev, symObjAddr: 0x2E1C, symBinAddr: 0x100005EA4, symSize: 0x4C }
  - { offsetInCU: 0x10D48, offset: 0x10D48, size: 0x8, addend: 0x0, symName: __ZNSt3__117__compressed_pairIP4NodeNS_9allocatorIS1_EEEC1B8ue170006IDnNS_18__default_init_tagEEEOT_OT0_, symObjAddr: 0x2E68, symBinAddr: 0x100005EF0, symSize: 0x3C }
  - { offsetInCU: 0x10DA0, offset: 0x10DA0, size: 0x8, addend: 0x0, symName: __ZNSt3__117__compressed_pairIP4NodeNS_9allocatorIS1_EEEC2B8ue170006IDnNS_18__default_init_tagEEEOT_OT0_, symObjAddr: 0x2EA4, symBinAddr: 0x100005F2C, symSize: 0x40 }
  - { offsetInCU: 0x10DF8, offset: 0x10DF8, size: 0x8, addend: 0x0, symName: __ZNSt3__122__compressed_pair_elemIP4NodeLi0ELb0EEC2B8ue170006IDnvEEOT_, symObjAddr: 0x2EE4, symBinAddr: 0x100005F6C, symSize: 0x1C }
  - { offsetInCU: 0x10E3A, offset: 0x10E3A, size: 0x8, addend: 0x0, symName: __ZNSt3__122__compressed_pair_elemINS_9allocatorI4NodeEELi1ELb1EEC2B8ue170006ENS_18__default_init_tagE, symObjAddr: 0x2F00, symBinAddr: 0x100005F88, symSize: 0x2C }
  - { offsetInCU: 0x10E6F, offset: 0x10E6F, size: 0x8, addend: 0x0, symName: __ZNSt3__19allocatorI4NodeEC2B8ue170006Ev, symObjAddr: 0x2F2C, symBinAddr: 0x100005FB4, symSize: 0x2C }
  - { offsetInCU: 0x10E99, offset: 0x10E99, size: 0x8, addend: 0x0, symName: __ZNSt3__116__non_trivial_ifILb1ENS_9allocatorI4NodeEEEC2B8ue170006Ev, symObjAddr: 0x2F58, symBinAddr: 0x100005FE0, symSize: 0x14 }
  - { offsetInCU: 0x10EC3, offset: 0x10EC3, size: 0x8, addend: 0x0, symName: __ZNSt3__16vectorI4NodeNS_9allocatorIS1_EEED2B8ue170006Ev, symObjAddr: 0x2F6C, symBinAddr: 0x100005FF4, symSize: 0x44 }
  - { offsetInCU: 0x10EED, offset: 0x10EED, size: 0x8, addend: 0x0, symName: __ZNSt3__16vectorI4NodeNS_9allocatorIS1_EEE16__destroy_vectorC1B8ue170006ERS4_, symObjAddr: 0x2FB0, symBinAddr: 0x100006038, symSize: 0x34 }
  - { offsetInCU: 0x10F26, offset: 0x10F26, size: 0x8, addend: 0x0, symName: __ZNSt3__16vectorI4NodeNS_9allocatorIS1_EEE16__destroy_vectorclB8ue170006Ev, symObjAddr: 0x2FE4, symBinAddr: 0x10000606C, symSize: 0x90 }
  - { offsetInCU: 0x10F4C, offset: 0x10F4C, size: 0x8, addend: 0x0, symName: __ZNSt3__16vectorI4NodeNS_9allocatorIS1_EEE16__destroy_vectorC2B8ue170006ERS4_, symObjAddr: 0x3074, symBinAddr: 0x1000060FC, symSize: 0x20 }
  - { offsetInCU: 0x10F85, offset: 0x10F85, size: 0x8, addend: 0x0, symName: __ZNSt3__16vectorI4NodeNS_9allocatorIS1_EEE7__clearB8ue170006Ev, symObjAddr: 0x3094, symBinAddr: 0x10000611C, symSize: 0x28 }
  - { offsetInCU: 0x10FAB, offset: 0x10FAB, size: 0x8, addend: 0x0, symName: __ZNKSt3__16vectorI4NodeNS_9allocatorIS1_EEE17__annotate_deleteB8ue170006Ev, symObjAddr: 0x30BC, symBinAddr: 0x100006144, symSize: 0xB8 }
  - { offsetInCU: 0x10FD1, offset: 0x10FD1, size: 0x8, addend: 0x0, symName: __ZNSt3__116allocator_traitsINS_9allocatorI4NodeEEE10deallocateB8ue170006ERS3_PS2_m, symObjAddr: 0x3174, symBinAddr: 0x1000061FC, symSize: 0x34 }
  - { offsetInCU: 0x11013, offset: 0x11013, size: 0x8, addend: 0x0, symName: __ZNSt3__16vectorI4NodeNS_9allocatorIS1_EEE7__allocB8ue170006Ev, symObjAddr: 0x31A8, symBinAddr: 0x100006230, symSize: 0x28 }
  - { offsetInCU: 0x11039, offset: 0x11039, size: 0x8, addend: 0x0, symName: __ZNKSt3__16vectorI4NodeNS_9allocatorIS1_EEE8capacityB8ue170006Ev, symObjAddr: 0x31D0, symBinAddr: 0x100006258, symSize: 0x40 }
  - { offsetInCU: 0x1105F, offset: 0x1105F, size: 0x8, addend: 0x0, symName: __ZNSt3__16vectorI4NodeNS_9allocatorIS1_EEE22__base_destruct_at_endB8ue170006EPS1_, symObjAddr: 0x3210, symBinAddr: 0x100006298, symSize: 0x8C }
  - { offsetInCU: 0x110A3, offset: 0x110A3, size: 0x8, addend: 0x0, symName: __ZNSt3__116allocator_traitsINS_9allocatorI4NodeEEE7destroyB8ue170006IS2_vEEvRS3_PT_, symObjAddr: 0x329C, symBinAddr: 0x100006324, symSize: 0x2C }
  - { offsetInCU: 0x110E0, offset: 0x110E0, size: 0x8, addend: 0x0, symName: __ZNSt3__19allocatorI4NodeE7destroyB8ue170006EPS1_, symObjAddr: 0x32C8, symBinAddr: 0x100006350, symSize: 0x14 }
  - { offsetInCU: 0x11114, offset: 0x11114, size: 0x8, addend: 0x0, symName: __ZNKSt3__16vectorI4NodeNS_9allocatorIS1_EEE31__annotate_contiguous_containerB8ue170006EPKvS6_S6_S6_, symObjAddr: 0x32DC, symBinAddr: 0x100006364, symSize: 0x20 }
  - { offsetInCU: 0x11166, offset: 0x11166, size: 0x8, addend: 0x0, symName: __ZNKSt3__16vectorI4NodeNS_9allocatorIS1_EEE4dataB8ue170006Ev, symObjAddr: 0x32FC, symBinAddr: 0x100006384, symSize: 0x28 }
  - { offsetInCU: 0x1118C, offset: 0x1118C, size: 0x8, addend: 0x0, symName: __ZNSt3__19allocatorI4NodeE10deallocateB8ue170006EPS1_m, symObjAddr: 0x3324, symBinAddr: 0x1000063AC, symSize: 0x40 }
  - { offsetInCU: 0x111CE, offset: 0x111CE, size: 0x8, addend: 0x0, symName: __ZNSt3__117__compressed_pairIP4NodeNS_9allocatorIS1_EEE6secondB8ue170006Ev, symObjAddr: 0x3364, symBinAddr: 0x1000063EC, symSize: 0x24 }
  - { offsetInCU: 0x111F4, offset: 0x111F4, size: 0x8, addend: 0x0, symName: __ZNSt3__122__compressed_pair_elemINS_9allocatorI4NodeEELi1ELb1EE5__getB8ue170006Ev, symObjAddr: 0x3388, symBinAddr: 0x100006410, symSize: 0x14 }
  - { offsetInCU: 0x1121A, offset: 0x1121A, size: 0x8, addend: 0x0, symName: __ZNKSt3__16vectorI4NodeNS_9allocatorIS1_EEE9__end_capB8ue170006Ev, symObjAddr: 0x339C, symBinAddr: 0x100006424, symSize: 0x28 }
  - { offsetInCU: 0x11240, offset: 0x11240, size: 0x8, addend: 0x0, symName: __ZNKSt3__117__compressed_pairIP4NodeNS_9allocatorIS1_EEE5firstB8ue170006Ev, symObjAddr: 0x33C4, symBinAddr: 0x10000644C, symSize: 0x24 }
  - { offsetInCU: 0x11266, offset: 0x11266, size: 0x8, addend: 0x0, symName: __ZNKSt3__122__compressed_pair_elemIP4NodeLi0ELb0EE5__getB8ue170006Ev, symObjAddr: 0x33E8, symBinAddr: 0x100006470, symSize: 0x14 }
  - { offsetInCU: 0x1128C, offset: 0x1128C, size: 0x8, addend: 0x0, symName: __ZNSt3__19basic_iosIcNS_11char_traitsIcEEEC2B8ue170006Ev, symObjAddr: 0x33FC, symBinAddr: 0x100006484, symSize: 0x44 }
  - { offsetInCU: 0x112B6, offset: 0x112B6, size: 0x8, addend: 0x0, symName: __ZNSt3__114basic_iostreamIcNS_11char_traitsIcEEEC2B8ue170006EPNS_15basic_streambufIcS2_EE, symObjAddr: 0x3440, symBinAddr: 0x1000064C8, symSize: 0xAC }
  - { offsetInCU: 0x112FC, offset: 0x112FC, size: 0x8, addend: 0x0, symName: __ZNSt3__18ios_baseC2B8ue170006Ev, symObjAddr: 0x34EC, symBinAddr: 0x100006574, symSize: 0x24 }
  - { offsetInCU: 0x11326, offset: 0x11326, size: 0x8, addend: 0x0, symName: __ZNSt3__113basic_istreamIcNS_11char_traitsIcEEEC2B8ue170006EPNS_15basic_streambufIcS2_EE, symObjAddr: 0x3510, symBinAddr: 0x100006598, symSize: 0x64 }
  - { offsetInCU: 0x1136B, offset: 0x1136B, size: 0x8, addend: 0x0, symName: __ZNSt3__113basic_ostreamIcNS_11char_traitsIcEEEC2B8ue170006Ev, symObjAddr: 0x3574, symBinAddr: 0x1000065FC, symSize: 0x34 }
  - { offsetInCU: 0x113A2, offset: 0x113A2, size: 0x8, addend: 0x0, symName: __ZNSt3__19basic_iosIcNS_11char_traitsIcEEE4initB8ue170006EPNS_15basic_streambufIcS2_EE, symObjAddr: 0x35A8, symBinAddr: 0x100006630, symSize: 0x44 }
  - { offsetInCU: 0x113D9, offset: 0x113D9, size: 0x8, addend: 0x0, symName: __ZNSt3__111char_traitsIcE3eofB8ue170006Ev, symObjAddr: 0x35EC, symBinAddr: 0x100006674, symSize: 0x8 }
  - { offsetInCU: 0x113ED, offset: 0x113ED, size: 0x8, addend: 0x0, symName: __ZNSt3__19basic_iosIcNS_11char_traitsIcEEE5clearB8ue170006Ej, symObjAddr: 0x35F4, symBinAddr: 0x10000667C, symSize: 0x2C }
  - { offsetInCU: 0x11422, offset: 0x11422, size: 0x8, addend: 0x0, symName: __ZNSt3__19basic_iosIcNS_11char_traitsIcEEE8setstateB8ue170006Ej, symObjAddr: 0x3620, symBinAddr: 0x1000066A8, symSize: 0x2C }
  - { offsetInCU: 0x11457, offset: 0x11457, size: 0x8, addend: 0x0, symName: __ZNSt3__18ios_base8setstateB8ue170006Ej, symObjAddr: 0x364C, symBinAddr: 0x1000066D4, symSize: 0x34 }
  - { offsetInCU: 0x1148E, offset: 0x1148E, size: 0x8, addend: 0x0, symName: __ZNSt3__16vectorI4NodeNS_9allocatorIS1_EEEC2EmRKS1_, symObjAddr: 0x3680, symBinAddr: 0x100006708, symSize: 0xDC }
  - { offsetInCU: 0x114ED, offset: 0x114ED, size: 0x8, addend: 0x0, symName: __ZNSt3__16vectorI4NodeNS_9allocatorIS1_EEE11__vallocateB8ue170006Em, symObjAddr: 0x379C, symBinAddr: 0x100006824, symSize: 0xAC }
  - { offsetInCU: 0x11531, offset: 0x11531, size: 0x8, addend: 0x0, symName: __ZNSt3__16vectorI4NodeNS_9allocatorIS1_EEE18__construct_at_endEmRKS1_, symObjAddr: 0x3848, symBinAddr: 0x1000068D0, symSize: 0xD0 }
  - { offsetInCU: 0x115B3, offset: 0x115B3, size: 0x8, addend: 0x0, symName: __ZNSt3__128__exception_guard_exceptionsINS_6vectorI4NodeNS_9allocatorIS2_EEE16__destroy_vectorEE10__completeB8ue170006Ev, symObjAddr: 0x3918, symBinAddr: 0x1000069A0, symSize: 0x1C }
  - { offsetInCU: 0x115D9, offset: 0x115D9, size: 0x8, addend: 0x0, symName: __ZNSt3__128__exception_guard_exceptionsINS_6vectorI4NodeNS_9allocatorIS2_EEE16__destroy_vectorEED1B8ue170006Ev, symObjAddr: 0x3934, symBinAddr: 0x1000069BC, symSize: 0x2C }
  - { offsetInCU: 0x11603, offset: 0x11603, size: 0x8, addend: 0x0, symName: __ZNSt3__128__exception_guard_exceptionsINS_6vectorI4NodeNS_9allocatorIS2_EEE16__destroy_vectorEEC1B8ue170006ES6_, symObjAddr: 0x3960, symBinAddr: 0x1000069E8, symSize: 0x34 }
  - { offsetInCU: 0x1163B, offset: 0x1163B, size: 0x8, addend: 0x0, symName: __ZNSt3__128__exception_guard_exceptionsINS_6vectorI4NodeNS_9allocatorIS2_EEE16__destroy_vectorEEC2B8ue170006ES6_, symObjAddr: 0x3994, symBinAddr: 0x100006A1C, symSize: 0x24 }
  - { offsetInCU: 0x11673, offset: 0x11673, size: 0x8, addend: 0x0, symName: __ZNKSt3__16vectorI4NodeNS_9allocatorIS1_EEE8max_sizeEv, symObjAddr: 0x39B8, symBinAddr: 0x100006A40, symSize: 0x60 }
  - { offsetInCU: 0x1169B, offset: 0x1169B, size: 0x8, addend: 0x0, symName: __ZNKSt3__16vectorI4NodeNS_9allocatorIS1_EEE20__throw_length_errorB8ue170006Ev, symObjAddr: 0x3A18, symBinAddr: 0x100006AA0, symSize: 0x1C }
  - { offsetInCU: 0x116C1, offset: 0x116C1, size: 0x8, addend: 0x0, symName: __ZNSt3__16vectorI4NodeNS_9allocatorIS1_EEE9__end_capB8ue170006Ev, symObjAddr: 0x3A74, symBinAddr: 0x100006AFC, symSize: 0x28 }
  - { offsetInCU: 0x116E7, offset: 0x116E7, size: 0x8, addend: 0x0, symName: __ZNKSt3__16vectorI4NodeNS_9allocatorIS1_EEE14__annotate_newB8ue170006Em, symObjAddr: 0x3A9C, symBinAddr: 0x100006B24, symSize: 0xAC }
  - { offsetInCU: 0x11726, offset: 0x11726, size: 0x8, addend: 0x0, symName: __ZNSt3__116allocator_traitsINS_9allocatorI4NodeEEE8max_sizeB8ue170006IS3_vEEmRKS3_, symObjAddr: 0x3B74, symBinAddr: 0x100006BFC, symSize: 0x24 }
  - { offsetInCU: 0x11754, offset: 0x11754, size: 0x8, addend: 0x0, symName: __ZNKSt3__16vectorI4NodeNS_9allocatorIS1_EEE7__allocB8ue170006Ev, symObjAddr: 0x3B98, symBinAddr: 0x100006C20, symSize: 0x28 }
  - { offsetInCU: 0x1177A, offset: 0x1177A, size: 0x8, addend: 0x0, symName: __ZNSt3__114numeric_limitsIlE3maxB8ue170006Ev, symObjAddr: 0x3BC0, symBinAddr: 0x100006C48, symSize: 0x14 }
  - { offsetInCU: 0x11798, offset: 0x11798, size: 0x8, addend: 0x0, symName: __ZNKSt3__16__lessIvvEclB8ue170006ImmEEbRKT_RKT0_, symObjAddr: 0x3C28, symBinAddr: 0x100006CB0, symSize: 0x34 }
  - { offsetInCU: 0x117EC, offset: 0x117EC, size: 0x8, addend: 0x0, symName: __ZNKSt3__19allocatorI4NodeE8max_sizeB8ue170006Ev, symObjAddr: 0x3C5C, symBinAddr: 0x100006CE4, symSize: 0x14 }
  - { offsetInCU: 0x11812, offset: 0x11812, size: 0x8, addend: 0x0, symName: __ZNKSt3__117__compressed_pairIP4NodeNS_9allocatorIS1_EEE6secondB8ue170006Ev, symObjAddr: 0x3C70, symBinAddr: 0x100006CF8, symSize: 0x24 }
  - { offsetInCU: 0x11838, offset: 0x11838, size: 0x8, addend: 0x0, symName: __ZNKSt3__122__compressed_pair_elemINS_9allocatorI4NodeEELi1ELb1EE5__getB8ue170006Ev, symObjAddr: 0x3C94, symBinAddr: 0x100006D1C, symSize: 0x14 }
  - { offsetInCU: 0x1185E, offset: 0x1185E, size: 0x8, addend: 0x0, symName: __ZNSt3__123__libcpp_numeric_limitsIlLb1EE3maxB8ue170006Ev, symObjAddr: 0x3CA8, symBinAddr: 0x100006D30, symSize: 0x8 }
  - { offsetInCU: 0x11872, offset: 0x11872, size: 0x8, addend: 0x0, symName: __ZNSt12length_errorC1B8ue170006EPKc, symObjAddr: 0x3D14, symBinAddr: 0x100006D9C, symSize: 0x34 }
  - { offsetInCU: 0x118AA, offset: 0x118AA, size: 0x8, addend: 0x0, symName: __ZNSt12length_errorC2B8ue170006EPKc, symObjAddr: 0x3D48, symBinAddr: 0x100006DD0, symSize: 0x4C }
  - { offsetInCU: 0x118E2, offset: 0x118E2, size: 0x8, addend: 0x0, symName: __ZNSt3__19allocatorI4NodeE8allocateB8ue170006Em, symObjAddr: 0x3D94, symBinAddr: 0x100006E1C, symSize: 0x58 }
  - { offsetInCU: 0x11916, offset: 0x11916, size: 0x8, addend: 0x0, symName: __ZNSt3__117__compressed_pairIP4NodeNS_9allocatorIS1_EEE5firstB8ue170006Ev, symObjAddr: 0x3E6C, symBinAddr: 0x100006EF4, symSize: 0x24 }
  - { offsetInCU: 0x1193C, offset: 0x1193C, size: 0x8, addend: 0x0, symName: __ZNSt3__122__compressed_pair_elemIP4NodeLi0ELb0EE5__getB8ue170006Ev, symObjAddr: 0x3E90, symBinAddr: 0x100006F18, symSize: 0x14 }
  - { offsetInCU: 0x1197B, offset: 0x1197B, size: 0x8, addend: 0x0, symName: __ZNSt3__16vectorI4NodeNS_9allocatorIS1_EEE21_ConstructTransactionC1B8ue170006ERS4_m, symObjAddr: 0x3EA4, symBinAddr: 0x100006F2C, symSize: 0x3C }
  - { offsetInCU: 0x119C3, offset: 0x119C3, size: 0x8, addend: 0x0, symName: __ZNSt3__116allocator_traitsINS_9allocatorI4NodeEEE9constructB8ue170006IS2_JRKS2_EvEEvRS3_PT_DpOT0_, symObjAddr: 0x3EE0, symBinAddr: 0x100006F68, symSize: 0x34 }
  - { offsetInCU: 0x11A1A, offset: 0x11A1A, size: 0x8, addend: 0x0, symName: __ZNSt3__16vectorI4NodeNS_9allocatorIS1_EEE21_ConstructTransactionD1B8ue170006Ev, symObjAddr: 0x3F14, symBinAddr: 0x100006F9C, symSize: 0x2C }
  - { offsetInCU: 0x11A44, offset: 0x11A44, size: 0x8, addend: 0x0, symName: __ZNSt3__16vectorI4NodeNS_9allocatorIS1_EEE21_ConstructTransactionC2B8ue170006ERS4_m, symObjAddr: 0x3F40, symBinAddr: 0x100006FC8, symSize: 0x44 }
  - { offsetInCU: 0x11A8C, offset: 0x11A8C, size: 0x8, addend: 0x0, symName: __ZNSt3__19allocatorI4NodeE9constructB8ue170006IS1_JRKS1_EEEvPT_DpOT0_, symObjAddr: 0x3F84, symBinAddr: 0x10000700C, symSize: 0x30 }
  - { offsetInCU: 0x11AE2, offset: 0x11AE2, size: 0x8, addend: 0x0, symName: __ZNSt3__16vectorI4NodeNS_9allocatorIS1_EEE21_ConstructTransactionD2B8ue170006Ev, symObjAddr: 0x3FB4, symBinAddr: 0x10000703C, symSize: 0x20 }
  - { offsetInCU: 0x11B0C, offset: 0x11B0C, size: 0x8, addend: 0x0, symName: __ZNSt3__128__exception_guard_exceptionsINS_6vectorI4NodeNS_9allocatorIS2_EEE16__destroy_vectorEED2B8ue170006Ev, symObjAddr: 0x3FD4, symBinAddr: 0x10000705C, symSize: 0x48 }
  - { offsetInCU: 0x11B36, offset: 0x11B36, size: 0x8, addend: 0x0, symName: __ZNSt3__16vectorINS0_I4NodeNS_9allocatorIS1_EEEENS2_IS4_EEE9__end_capB8ue170006Ev, symObjAddr: 0x401C, symBinAddr: 0x1000070A4, symSize: 0x28 }
  - { offsetInCU: 0x11B5C, offset: 0x11B5C, size: 0x8, addend: 0x0, symName: __ZNSt3__16vectorINS0_I4NodeNS_9allocatorIS1_EEEENS2_IS4_EEE22__construct_one_at_endB8ue170006IJRKS4_EEEvDpOT_, symObjAddr: 0x4044, symBinAddr: 0x1000070CC, symSize: 0x90 }
  - { offsetInCU: 0x11BAB, offset: 0x11BAB, size: 0x8, addend: 0x0, symName: __ZNSt3__16vectorINS0_I4NodeNS_9allocatorIS1_EEEENS2_IS4_EEE21__push_back_slow_pathIRKS4_EEvOT_, symObjAddr: 0x40D4, symBinAddr: 0x10000715C, symSize: 0xD8 }
  - { offsetInCU: 0x11C09, offset: 0x11C09, size: 0x8, addend: 0x0, symName: __ZNSt3__117__compressed_pairIPNS_6vectorI4NodeNS_9allocatorIS2_EEEENS3_IS5_EEE5firstB8ue170006Ev, symObjAddr: 0x41AC, symBinAddr: 0x100007234, symSize: 0x24 }
  - { offsetInCU: 0x11C2F, offset: 0x11C2F, size: 0x8, addend: 0x0, symName: __ZNSt3__122__compressed_pair_elemIPNS_6vectorI4NodeNS_9allocatorIS2_EEEELi0ELb0EE5__getB8ue170006Ev, symObjAddr: 0x41D0, symBinAddr: 0x100007258, symSize: 0x14 }
  - { offsetInCU: 0x11C6E, offset: 0x11C6E, size: 0x8, addend: 0x0, symName: __ZNSt3__16vectorINS0_I4NodeNS_9allocatorIS1_EEEENS2_IS4_EEE21_ConstructTransactionC1B8ue170006ERS6_m, symObjAddr: 0x41E4, symBinAddr: 0x10000726C, symSize: 0x3C }
  - { offsetInCU: 0x11CB6, offset: 0x11CB6, size: 0x8, addend: 0x0, symName: __ZNSt3__116allocator_traitsINS_9allocatorINS_6vectorI4NodeNS1_IS3_EEEEEEE9constructB8ue170006IS5_JRKS5_EvEEvRS6_PT_DpOT0_, symObjAddr: 0x4220, symBinAddr: 0x1000072A8, symSize: 0x34 }
  - { offsetInCU: 0x11D0D, offset: 0x11D0D, size: 0x8, addend: 0x0, symName: __ZNSt3__16vectorINS0_I4NodeNS_9allocatorIS1_EEEENS2_IS4_EEE21_ConstructTransactionD1B8ue170006Ev, symObjAddr: 0x4254, symBinAddr: 0x1000072DC, symSize: 0x2C }
  - { offsetInCU: 0x11D37, offset: 0x11D37, size: 0x8, addend: 0x0, symName: __ZNSt3__16vectorINS0_I4NodeNS_9allocatorIS1_EEEENS2_IS4_EEE21_ConstructTransactionC2B8ue170006ERS6_m, symObjAddr: 0x4280, symBinAddr: 0x100007308, symSize: 0x4C }
  - { offsetInCU: 0x11D7F, offset: 0x11D7F, size: 0x8, addend: 0x0, symName: __ZNSt3__19allocatorINS_6vectorI4NodeNS0_IS2_EEEEE9constructB8ue170006IS4_JRKS4_EEEvPT_DpOT0_, symObjAddr: 0x42CC, symBinAddr: 0x100007354, symSize: 0x30 }
  - { offsetInCU: 0x11DD5, offset: 0x11DD5, size: 0x8, addend: 0x0, symName: __ZNSt3__16vectorINS0_I4NodeNS_9allocatorIS1_EEEENS2_IS4_EEE21_ConstructTransactionD2B8ue170006Ev, symObjAddr: 0x42FC, symBinAddr: 0x100007384, symSize: 0x20 }
  - { offsetInCU: 0x11DFF, offset: 0x11DFF, size: 0x8, addend: 0x0, symName: __ZNKSt3__16vectorINS0_I4NodeNS_9allocatorIS1_EEEENS2_IS4_EEE11__recommendB8ue170006Em, symObjAddr: 0x431C, symBinAddr: 0x1000073A4, symSize: 0xB4 }
  - { offsetInCU: 0x11E54, offset: 0x11E54, size: 0x8, addend: 0x0, symName: __ZNSt3__114__split_bufferINS_6vectorI4NodeNS_9allocatorIS2_EEEERNS3_IS5_EEEC1EmmS7_, symObjAddr: 0x43D0, symBinAddr: 0x100007458, symSize: 0x44 }
  - { offsetInCU: 0x11EAA, offset: 0x11EAA, size: 0x8, addend: 0x0, symName: __ZNSt3__114__split_bufferINS_6vectorI4NodeNS_9allocatorIS2_EEEERNS3_IS5_EEED1Ev, symObjAddr: 0x4524, symBinAddr: 0x1000075AC, symSize: 0x2C }
  - { offsetInCU: 0x11ED6, offset: 0x11ED6, size: 0x8, addend: 0x0, symName: __ZNKSt3__16vectorINS0_I4NodeNS_9allocatorIS1_EEEENS2_IS4_EEE8max_sizeEv, symObjAddr: 0x4550, symBinAddr: 0x1000075D8, symSize: 0x60 }
  - { offsetInCU: 0x11EFE, offset: 0x11EFE, size: 0x8, addend: 0x0, symName: __ZNKSt3__16vectorINS0_I4NodeNS_9allocatorIS1_EEEENS2_IS4_EEE20__throw_length_errorB8ue170006Ev, symObjAddr: 0x45B0, symBinAddr: 0x100007638, symSize: 0x1C }
  - { offsetInCU: 0x11F2E, offset: 0x11F2E, size: 0x8, addend: 0x0, symName: __ZNSt3__116allocator_traitsINS_9allocatorINS_6vectorI4NodeNS1_IS3_EEEEEEE8max_sizeB8ue170006IS6_vEEmRKS6_, symObjAddr: 0x45F8, symBinAddr: 0x100007680, symSize: 0x24 }
  - { offsetInCU: 0x11F5C, offset: 0x11F5C, size: 0x8, addend: 0x0, symName: __ZNKSt3__16vectorINS0_I4NodeNS_9allocatorIS1_EEEENS2_IS4_EEE7__allocB8ue170006Ev, symObjAddr: 0x461C, symBinAddr: 0x1000076A4, symSize: 0x28 }
  - { offsetInCU: 0x11F82, offset: 0x11F82, size: 0x8, addend: 0x0, symName: __ZNKSt3__19allocatorINS_6vectorI4NodeNS0_IS2_EEEEE8max_sizeB8ue170006Ev, symObjAddr: 0x4644, symBinAddr: 0x1000076CC, symSize: 0x18 }
  - { offsetInCU: 0x11FA8, offset: 0x11FA8, size: 0x8, addend: 0x0, symName: __ZNKSt3__117__compressed_pairIPNS_6vectorI4NodeNS_9allocatorIS2_EEEENS3_IS5_EEE6secondB8ue170006Ev, symObjAddr: 0x465C, symBinAddr: 0x1000076E4, symSize: 0x24 }
  - { offsetInCU: 0x11FCE, offset: 0x11FCE, size: 0x8, addend: 0x0, symName: __ZNKSt3__122__compressed_pair_elemINS_9allocatorINS_6vectorI4NodeNS1_IS3_EEEEEELi1ELb1EE5__getB8ue170006Ev, symObjAddr: 0x4680, symBinAddr: 0x100007708, symSize: 0x14 }
  - { offsetInCU: 0x11FF4, offset: 0x11FF4, size: 0x8, addend: 0x0, symName: __ZNSt3__114__split_bufferINS_6vectorI4NodeNS_9allocatorIS2_EEEERNS3_IS5_EEEC2EmmS7_, symObjAddr: 0x46E8, symBinAddr: 0x100007770, symSize: 0xE0 }
  - { offsetInCU: 0x12068, offset: 0x12068, size: 0x8, addend: 0x0, symName: __ZNSt3__117__compressed_pairIPNS_6vectorI4NodeNS_9allocatorIS2_EEEERNS3_IS5_EEEC1B8ue170006IDnS8_EEOT_OT0_, symObjAddr: 0x47C8, symBinAddr: 0x100007850, symSize: 0x3C }
  - { offsetInCU: 0x120C0, offset: 0x120C0, size: 0x8, addend: 0x0, symName: __ZNSt3__114__split_bufferINS_6vectorI4NodeNS_9allocatorIS2_EEEERNS3_IS5_EEE7__allocB8ue170006Ev, symObjAddr: 0x4844, symBinAddr: 0x1000078CC, symSize: 0x28 }
  - { offsetInCU: 0x120E6, offset: 0x120E6, size: 0x8, addend: 0x0, symName: __ZNSt3__114__split_bufferINS_6vectorI4NodeNS_9allocatorIS2_EEEERNS3_IS5_EEE9__end_capB8ue170006Ev, symObjAddr: 0x486C, symBinAddr: 0x1000078F4, symSize: 0x28 }
  - { offsetInCU: 0x1210C, offset: 0x1210C, size: 0x8, addend: 0x0, symName: __ZNSt3__117__compressed_pairIPNS_6vectorI4NodeNS_9allocatorIS2_EEEERNS3_IS5_EEEC2B8ue170006IDnS8_EEOT_OT0_, symObjAddr: 0x4894, symBinAddr: 0x10000791C, symSize: 0x48 }
  - { offsetInCU: 0x12164, offset: 0x12164, size: 0x8, addend: 0x0, symName: __ZNSt3__122__compressed_pair_elemIRNS_9allocatorINS_6vectorI4NodeNS1_IS3_EEEEEELi1ELb0EEC2B8ue170006IS7_vEEOT_, symObjAddr: 0x48DC, symBinAddr: 0x100007964, symSize: 0x20 }
  - { offsetInCU: 0x121A6, offset: 0x121A6, size: 0x8, addend: 0x0, symName: __ZNSt3__19allocatorINS_6vectorI4NodeNS0_IS2_EEEEE8allocateB8ue170006Em, symObjAddr: 0x48FC, symBinAddr: 0x100007984, symSize: 0x5C }
  - { offsetInCU: 0x121DA, offset: 0x121DA, size: 0x8, addend: 0x0, symName: __ZNSt3__117__compressed_pairIPNS_6vectorI4NodeNS_9allocatorIS2_EEEERNS3_IS5_EEE6secondB8ue170006Ev, symObjAddr: 0x4958, symBinAddr: 0x1000079E0, symSize: 0x28 }
  - { offsetInCU: 0x12200, offset: 0x12200, size: 0x8, addend: 0x0, symName: __ZNSt3__122__compressed_pair_elemIRNS_9allocatorINS_6vectorI4NodeNS1_IS3_EEEEEELi1ELb0EE5__getB8ue170006Ev, symObjAddr: 0x4980, symBinAddr: 0x100007A08, symSize: 0x18 }
  - { offsetInCU: 0x12226, offset: 0x12226, size: 0x8, addend: 0x0, symName: __ZNSt3__117__compressed_pairIPNS_6vectorI4NodeNS_9allocatorIS2_EEEERNS3_IS5_EEE5firstB8ue170006Ev, symObjAddr: 0x4998, symBinAddr: 0x100007A20, symSize: 0x24 }
  - { offsetInCU: 0x1224C, offset: 0x1224C, size: 0x8, addend: 0x0, symName: __ZNSt3__116reverse_iteratorIPNS_6vectorI4NodeNS_9allocatorIS2_EEEEEC1B8ue170006ES6_, symObjAddr: 0x4AE8, symBinAddr: 0x100007B70, symSize: 0x34 }
  - { offsetInCU: 0x12284, offset: 0x12284, size: 0x8, addend: 0x0, symName: __ZNKSt3__116reverse_iteratorIPNS_6vectorI4NodeNS_9allocatorIS2_EEEEE4baseB8ue170006Ev, symObjAddr: 0x4B1C, symBinAddr: 0x100007BA4, symSize: 0x18 }
  - { offsetInCU: 0x122AA, offset: 0x122AA, size: 0x8, addend: 0x0, symName: __ZNKSt3__16vectorINS0_I4NodeNS_9allocatorIS1_EEEENS2_IS4_EEE14__annotate_newB8ue170006Em, symObjAddr: 0x4B70, symBinAddr: 0x100007BF8, symSize: 0xC8 }
  - { offsetInCU: 0x122DF, offset: 0x122DF, size: 0x8, addend: 0x0, symName: __ZNSt3__129_AllocatorDestroyRangeReverseINS_9allocatorINS_6vectorI4NodeNS1_IS3_EEEEEENS_16reverse_iteratorIPS5_EEEC1B8ue170006ERS6_RS9_SC_, symObjAddr: 0x4C84, symBinAddr: 0x100007D0C, symSize: 0x44 }
  - { offsetInCU: 0x12336, offset: 0x12336, size: 0x8, addend: 0x0, symName: __ZNSt3__116allocator_traitsINS_9allocatorINS_6vectorI4NodeNS1_IS3_EEEEEEE9constructB8ue170006IS5_JS5_EvEEvRS6_PT_DpOT0_, symObjAddr: 0x4D10, symBinAddr: 0x100007D98, symSize: 0x34 }
  - { offsetInCU: 0x1238D, offset: 0x1238D, size: 0x8, addend: 0x0, symName: __ZNKSt3__116reverse_iteratorIPNS_6vectorI4NodeNS_9allocatorIS2_EEEEEdeB8ue170006Ev, symObjAddr: 0x4D68, symBinAddr: 0x100007DF0, symSize: 0x28 }
  - { offsetInCU: 0x123C1, offset: 0x123C1, size: 0x8, addend: 0x0, symName: __ZNSt3__116reverse_iteratorIPNS_6vectorI4NodeNS_9allocatorIS2_EEEEEppB8ue170006Ev, symObjAddr: 0x4D90, symBinAddr: 0x100007E18, symSize: 0x20 }
  - { offsetInCU: 0x123E7, offset: 0x123E7, size: 0x8, addend: 0x0, symName: __ZNSt3__128__exception_guard_exceptionsINS_29_AllocatorDestroyRangeReverseINS_9allocatorINS_6vectorI4NodeNS2_IS4_EEEEEENS_16reverse_iteratorIPS6_EEEEE10__completeB8ue170006Ev, symObjAddr: 0x4DB0, symBinAddr: 0x100007E38, symSize: 0x1C }
  - { offsetInCU: 0x1240D, offset: 0x1240D, size: 0x8, addend: 0x0, symName: __ZNSt3__128__exception_guard_exceptionsINS_29_AllocatorDestroyRangeReverseINS_9allocatorINS_6vectorI4NodeNS2_IS4_EEEEEENS_16reverse_iteratorIPS6_EEEEED1B8ue170006Ev, symObjAddr: 0x4DCC, symBinAddr: 0x100007E54, symSize: 0x2C }
  - { offsetInCU: 0x12437, offset: 0x12437, size: 0x8, addend: 0x0, symName: __ZNSt3__128__exception_guard_exceptionsINS_29_AllocatorDestroyRangeReverseINS_9allocatorINS_6vectorI4NodeNS2_IS4_EEEEEENS_16reverse_iteratorIPS6_EEEEEC1B8ue170006ESB_, symObjAddr: 0x4DF8, symBinAddr: 0x100007E80, symSize: 0x34 }
  - { offsetInCU: 0x12470, offset: 0x12470, size: 0x8, addend: 0x0, symName: __ZNSt3__128__exception_guard_exceptionsINS_29_AllocatorDestroyRangeReverseINS_9allocatorINS_6vectorI4NodeNS2_IS4_EEEEEENS_16reverse_iteratorIPS6_EEEEEC2B8ue170006ESB_, symObjAddr: 0x4E2C, symBinAddr: 0x100007EB4, symSize: 0x30 }
  - { offsetInCU: 0x124A9, offset: 0x124A9, size: 0x8, addend: 0x0, symName: __ZNSt3__129_AllocatorDestroyRangeReverseINS_9allocatorINS_6vectorI4NodeNS1_IS3_EEEEEENS_16reverse_iteratorIPS5_EEEC2B8ue170006ERS6_RS9_SC_, symObjAddr: 0x4E5C, symBinAddr: 0x100007EE4, symSize: 0x38 }
  - { offsetInCU: 0x12500, offset: 0x12500, size: 0x8, addend: 0x0, symName: __ZNSt3__19allocatorINS_6vectorI4NodeNS0_IS2_EEEEE9constructB8ue170006IS4_JS4_EEEvPT_DpOT0_, symObjAddr: 0x4E94, symBinAddr: 0x100007F1C, symSize: 0x30 }
  - { offsetInCU: 0x12556, offset: 0x12556, size: 0x8, addend: 0x0, symName: __ZNSt3__16vectorI4NodeNS_9allocatorIS1_EEEC1B8ue170006EOS4_, symObjAddr: 0x4EC4, symBinAddr: 0x100007F4C, symSize: 0x34 }
  - { offsetInCU: 0x12591, offset: 0x12591, size: 0x8, addend: 0x0, symName: __ZNSt3__16vectorI4NodeNS_9allocatorIS1_EEEC2B8ue170006EOS4_, symObjAddr: 0x4EF8, symBinAddr: 0x100007F80, symSize: 0xC4 }
  - { offsetInCU: 0x125D1, offset: 0x125D1, size: 0x8, addend: 0x0, symName: __ZNSt3__117__compressed_pairIP4NodeNS_9allocatorIS1_EEEC1B8ue170006IDnS4_EEOT_OT0_, symObjAddr: 0x4FBC, symBinAddr: 0x100008044, symSize: 0x3C }
  - { offsetInCU: 0x12629, offset: 0x12629, size: 0x8, addend: 0x0, symName: __ZNSt3__117__compressed_pairIP4NodeNS_9allocatorIS1_EEEC2B8ue170006IDnS4_EEOT_OT0_, symObjAddr: 0x4FF8, symBinAddr: 0x100008080, symSize: 0x44 }
  - { offsetInCU: 0x12681, offset: 0x12681, size: 0x8, addend: 0x0, symName: __ZNSt3__122__compressed_pair_elemINS_9allocatorI4NodeEELi1ELb1EEC2B8ue170006IS3_vEEOT_, symObjAddr: 0x503C, symBinAddr: 0x1000080C4, symSize: 0x18 }
  - { offsetInCU: 0x126C8, offset: 0x126C8, size: 0x8, addend: 0x0, symName: __ZNSt3__119__to_address_helperINS_16reverse_iteratorIPNS_6vectorI4NodeNS_9allocatorIS3_EEEEEEvE6__callB8ue170006ERKS8_, symObjAddr: 0x5054, symBinAddr: 0x1000080DC, symSize: 0x38 }
  - { offsetInCU: 0x126EB, offset: 0x126EB, size: 0x8, addend: 0x0, symName: __ZNKSt3__116reverse_iteratorIPNS_6vectorI4NodeNS_9allocatorIS2_EEEEEptB8ue170006Ev, symObjAddr: 0x508C, symBinAddr: 0x100008114, symSize: 0x24 }
  - { offsetInCU: 0x12711, offset: 0x12711, size: 0x8, addend: 0x0, symName: __ZNSt3__128__exception_guard_exceptionsINS_29_AllocatorDestroyRangeReverseINS_9allocatorINS_6vectorI4NodeNS2_IS4_EEEEEENS_16reverse_iteratorIPS6_EEEEED2B8ue170006Ev, symObjAddr: 0x50B0, symBinAddr: 0x100008138, symSize: 0x50 }
  - { offsetInCU: 0x1273B, offset: 0x1273B, size: 0x8, addend: 0x0, symName: __ZNKSt3__129_AllocatorDestroyRangeReverseINS_9allocatorINS_6vectorI4NodeNS1_IS3_EEEEEENS_16reverse_iteratorIPS5_EEEclB8ue170006Ev, symObjAddr: 0x5100, symBinAddr: 0x100008188, symSize: 0xB4 }
  - { offsetInCU: 0x12762, offset: 0x12762, size: 0x8, addend: 0x0, symName: __ZNSt3__116reverse_iteratorINS0_IPNS_6vectorI4NodeNS_9allocatorIS2_EEEEEEEC1B8ue170006ES7_, symObjAddr: 0x5224, symBinAddr: 0x1000082AC, symSize: 0x3C }
  - { offsetInCU: 0x1279A, offset: 0x1279A, size: 0x8, addend: 0x0, symName: __ZNSt3__116reverse_iteratorINS0_IPNS_6vectorI4NodeNS_9allocatorIS2_EEEEEEEppB8ue170006Ev, symObjAddr: 0x52E4, symBinAddr: 0x10000836C, symSize: 0x30 }
  - { offsetInCU: 0x127C0, offset: 0x127C0, size: 0x8, addend: 0x0, symName: __ZNKSt3__116reverse_iteratorINS0_IPNS_6vectorI4NodeNS_9allocatorIS2_EEEEEEE4baseB8ue170006Ev, symObjAddr: 0x5314, symBinAddr: 0x10000839C, symSize: 0x24 }
  - { offsetInCU: 0x127EB, offset: 0x127EB, size: 0x8, addend: 0x0, symName: __ZNSt3__119__to_address_helperINS_16reverse_iteratorINS1_IPNS_6vectorI4NodeNS_9allocatorIS3_EEEEEEEEvE6__callB8ue170006ERKS9_, symObjAddr: 0x5338, symBinAddr: 0x1000083C0, symSize: 0x38 }
  - { offsetInCU: 0x1280E, offset: 0x1280E, size: 0x8, addend: 0x0, symName: __ZNKSt3__116reverse_iteratorINS0_IPNS_6vectorI4NodeNS_9allocatorIS2_EEEEEEEptB8ue170006Ev, symObjAddr: 0x5370, symBinAddr: 0x1000083F8, symSize: 0x24 }
  - { offsetInCU: 0x12834, offset: 0x12834, size: 0x8, addend: 0x0, symName: __ZNKSt3__116reverse_iteratorINS0_IPNS_6vectorI4NodeNS_9allocatorIS2_EEEEEEEdeB8ue170006Ev, symObjAddr: 0x5394, symBinAddr: 0x10000841C, symSize: 0x34 }
  - { offsetInCU: 0x12868, offset: 0x12868, size: 0x8, addend: 0x0, symName: __ZNSt3__116reverse_iteratorIPNS_6vectorI4NodeNS_9allocatorIS2_EEEEEmmB8ue170006Ev, symObjAddr: 0x53C8, symBinAddr: 0x100008450, symSize: 0x20 }
  - { offsetInCU: 0x1288E, offset: 0x1288E, size: 0x8, addend: 0x0, symName: __ZNSt3__116reverse_iteratorINS0_IPNS_6vectorI4NodeNS_9allocatorIS2_EEEEEEEC2B8ue170006ES7_, symObjAddr: 0x53E8, symBinAddr: 0x100008470, symSize: 0x2C }
  - { offsetInCU: 0x128C6, offset: 0x128C6, size: 0x8, addend: 0x0, symName: __ZNSt3__116reverse_iteratorIPNS_6vectorI4NodeNS_9allocatorIS2_EEEEEC2B8ue170006ES6_, symObjAddr: 0x5414, symBinAddr: 0x10000849C, symSize: 0x28 }
  - { offsetInCU: 0x128FE, offset: 0x128FE, size: 0x8, addend: 0x0, symName: __ZNSt3__114__split_bufferINS_6vectorI4NodeNS_9allocatorIS2_EEEERNS3_IS5_EEED2Ev, symObjAddr: 0x543C, symBinAddr: 0x1000084C4, symSize: 0x8C }
  - { offsetInCU: 0x1292A, offset: 0x1292A, size: 0x8, addend: 0x0, symName: __ZNSt3__114__split_bufferINS_6vectorI4NodeNS_9allocatorIS2_EEEERNS3_IS5_EEE5clearB8ue170006Ev, symObjAddr: 0x54C8, symBinAddr: 0x100008550, symSize: 0x28 }
  - { offsetInCU: 0x12950, offset: 0x12950, size: 0x8, addend: 0x0, symName: __ZNKSt3__114__split_bufferINS_6vectorI4NodeNS_9allocatorIS2_EEEERNS3_IS5_EEE8capacityB8ue170006Ev, symObjAddr: 0x54F0, symBinAddr: 0x100008578, symSize: 0x40 }
  - { offsetInCU: 0x12976, offset: 0x12976, size: 0x8, addend: 0x0, symName: __ZNSt3__114__split_bufferINS_6vectorI4NodeNS_9allocatorIS2_EEEERNS3_IS5_EEE17__destruct_at_endB8ue170006EPS5_, symObjAddr: 0x5530, symBinAddr: 0x1000085B8, symSize: 0x2C }
  - { offsetInCU: 0x129AA, offset: 0x129AA, size: 0x8, addend: 0x0, symName: __ZNSt3__114__split_bufferINS_6vectorI4NodeNS_9allocatorIS2_EEEERNS3_IS5_EEE17__destruct_at_endB8ue170006EPS5_NS_17integral_constantIbLb0EEE, symObjAddr: 0x555C, symBinAddr: 0x1000085E4, symSize: 0x80 }
  - { offsetInCU: 0x129EB, offset: 0x129EB, size: 0x8, addend: 0x0, symName: __ZNKSt3__114__split_bufferINS_6vectorI4NodeNS_9allocatorIS2_EEEERNS3_IS5_EEE9__end_capB8ue170006Ev, symObjAddr: 0x55DC, symBinAddr: 0x100008664, symSize: 0x28 }
  - { offsetInCU: 0x12A11, offset: 0x12A11, size: 0x8, addend: 0x0, symName: __ZNKSt3__117__compressed_pairIPNS_6vectorI4NodeNS_9allocatorIS2_EEEERNS3_IS5_EEE5firstB8ue170006Ev, symObjAddr: 0x5604, symBinAddr: 0x10000868C, symSize: 0x24 }
  - { offsetInCU: 0x12A55, offset: 0x12A55, size: 0x8, addend: 0x0, symName: __ZNKSt3__113basic_istreamIcNS_11char_traitsIcEEE6sentrycvbB8ue170006Ev, symObjAddr: 0x5628, symBinAddr: 0x1000086B0, symSize: 0x1C }
  - { offsetInCU: 0x12A7B, offset: 0x12A7B, size: 0x8, addend: 0x0, symName: __ZNKSt3__19basic_iosIcNS_11char_traitsIcEEE5rdbufB8ue170006Ev, symObjAddr: 0x5644, symBinAddr: 0x1000086CC, symSize: 0x24 }
  - { offsetInCU: 0x12AA3, offset: 0x12AA3, size: 0x8, addend: 0x0, symName: __ZNSt3__115basic_streambufIcNS_11char_traitsIcEEE6sbumpcB8ue170006Ev, symObjAddr: 0x5668, symBinAddr: 0x1000086F0, symSize: 0x78 }
  - { offsetInCU: 0x12AC9, offset: 0x12AC9, size: 0x8, addend: 0x0, symName: __ZNSt3__111char_traitsIcE11eq_int_typeB8ue170006Eii, symObjAddr: 0x56E0, symBinAddr: 0x100008768, symSize: 0x28 }
  - { offsetInCU: 0x12AFC, offset: 0x12AFC, size: 0x8, addend: 0x0, symName: __ZNSt3__111char_traitsIcE12to_char_typeB8ue170006Ei, symObjAddr: 0x5708, symBinAddr: 0x100008790, symSize: 0x18 }
  - { offsetInCU: 0x12B1F, offset: 0x12B1F, size: 0x8, addend: 0x0, symName: __ZNSt3__18ios_base18__setstate_nothrowB8ue170006Ej, symObjAddr: 0x5720, symBinAddr: 0x1000087A8, symSize: 0x64 }
  - { offsetInCU: 0x12B54, offset: 0x12B54, size: 0x8, addend: 0x0, symName: __ZNKSt3__19basic_iosIcNS_11char_traitsIcEEE10exceptionsB8ue170006Ev, symObjAddr: 0x5784, symBinAddr: 0x10000880C, symSize: 0x24 }
  - { offsetInCU: 0x12B7A, offset: 0x12B7A, size: 0x8, addend: 0x0, symName: __ZNKSt3__18ios_base5rdbufB8ue170006Ev, symObjAddr: 0x57A8, symBinAddr: 0x100008830, symSize: 0x18 }
  - { offsetInCU: 0x12BA0, offset: 0x12BA0, size: 0x8, addend: 0x0, symName: __ZNSt3__111char_traitsIcE11to_int_typeB8ue170006Ec, symObjAddr: 0x57C0, symBinAddr: 0x100008848, symSize: 0x14 }
  - { offsetInCU: 0x12BC4, offset: 0x12BC4, size: 0x8, addend: 0x0, symName: __ZNKSt3__18ios_base10exceptionsB8ue170006Ev, symObjAddr: 0x57D4, symBinAddr: 0x10000885C, symSize: 0x18 }
  - { offsetInCU: 0x12BEC, offset: 0x12BEC, size: 0x8, addend: 0x0, symName: __ZNSt3__112basic_stringIcNS_11char_traitsIcEENS_9allocatorIcEEE5clearB8ue170006Ev, symObjAddr: 0x57EC, symBinAddr: 0x100008874, symSize: 0x78 }
  - { offsetInCU: 0x12C14, offset: 0x12C14, size: 0x8, addend: 0x0, symName: __ZNKSt3__18ios_base5widthB8ue170006Ev, symObjAddr: 0x5864, symBinAddr: 0x1000088EC, symSize: 0x18 }
  - { offsetInCU: 0x12C3C, offset: 0x12C3C, size: 0x8, addend: 0x0, symName: __ZNKSt3__112basic_stringIcNS_11char_traitsIcEENS_9allocatorIcEEE8max_sizeB8ue170006Ev, symObjAddr: 0x587C, symBinAddr: 0x100008904, symSize: 0xAC }
  - { offsetInCU: 0x12C8F, offset: 0x12C8F, size: 0x8, addend: 0x0, symName: __ZNSt3__115basic_streambufIcNS_11char_traitsIcEEE5sgetcB8ue170006Ev, symObjAddr: 0x5954, symBinAddr: 0x1000089DC, symSize: 0x70 }
  - { offsetInCU: 0x12CDD, offset: 0x12CDD, size: 0x8, addend: 0x0, symName: __ZNKSt3__15ctypeIcE2isB8ue170006Ejc, symObjAddr: 0x59C4, symBinAddr: 0x100008A4C, symSize: 0x7C }
  - { offsetInCU: 0x12D21, offset: 0x12D21, size: 0x8, addend: 0x0, symName: __ZNSt3__18ios_base5widthB8ue170006El, symObjAddr: 0x5A40, symBinAddr: 0x100008AC8, symSize: 0x2C }
  - { offsetInCU: 0x12D67, offset: 0x12D67, size: 0x8, addend: 0x0, symName: __ZNKSt3__112basic_stringIcNS_11char_traitsIcEENS_9allocatorIcEEE9__is_longB8ue170006Ev, symObjAddr: 0x5A6C, symBinAddr: 0x100008AF4, symSize: 0x38 }
  - { offsetInCU: 0x12D8D, offset: 0x12D8D, size: 0x8, addend: 0x0, symName: __ZNSt3__111char_traitsIcE6assignB8ue170006ERcRKc, symObjAddr: 0x5AA4, symBinAddr: 0x100008B2C, symSize: 0x24 }
  - { offsetInCU: 0x12DBE, offset: 0x12DBE, size: 0x8, addend: 0x0, symName: __ZNSt3__112basic_stringIcNS_11char_traitsIcEENS_9allocatorIcEEE18__get_long_pointerB8ue170006Ev, symObjAddr: 0x5AC8, symBinAddr: 0x100008B50, symSize: 0x28 }
  - { offsetInCU: 0x12DE4, offset: 0x12DE4, size: 0x8, addend: 0x0, symName: __ZNSt3__112basic_stringIcNS_11char_traitsIcEENS_9allocatorIcEEE15__set_long_sizeB8ue170006Em, symObjAddr: 0x5AF0, symBinAddr: 0x100008B78, symSize: 0x38 }
  - { offsetInCU: 0x12E19, offset: 0x12E19, size: 0x8, addend: 0x0, symName: __ZNSt3__112basic_stringIcNS_11char_traitsIcEENS_9allocatorIcEEE19__get_short_pointerB8ue170006Ev, symObjAddr: 0x5B28, symBinAddr: 0x100008BB0, symSize: 0x28 }
  - { offsetInCU: 0x12E3F, offset: 0x12E3F, size: 0x8, addend: 0x0, symName: __ZNSt3__112basic_stringIcNS_11char_traitsIcEENS_9allocatorIcEEE16__set_short_sizeB8ue170006Em, symObjAddr: 0x5B50, symBinAddr: 0x100008BD8, symSize: 0x78 }
  - { offsetInCU: 0x12E74, offset: 0x12E74, size: 0x8, addend: 0x0, symName: __ZNKSt3__117__compressed_pairINS_12basic_stringIcNS_11char_traitsIcEENS_9allocatorIcEEE5__repES5_E5firstB8ue170006Ev, symObjAddr: 0x5BC8, symBinAddr: 0x100008C50, symSize: 0x24 }
  - { offsetInCU: 0x12E9A, offset: 0x12E9A, size: 0x8, addend: 0x0, symName: __ZNKSt3__122__compressed_pair_elemINS_12basic_stringIcNS_11char_traitsIcEENS_9allocatorIcEEE5__repELi0ELb0EE5__getB8ue170006Ev, symObjAddr: 0x5BEC, symBinAddr: 0x100008C74, symSize: 0x14 }
  - { offsetInCU: 0x12EC0, offset: 0x12EC0, size: 0x8, addend: 0x0, symName: __ZNSt3__114pointer_traitsIPcE10pointer_toB8ue170006ERc, symObjAddr: 0x5C00, symBinAddr: 0x100008C88, symSize: 0x14 }
  - { offsetInCU: 0x12EED, offset: 0x12EED, size: 0x8, addend: 0x0, symName: __ZNSt3__116allocator_traitsINS_9allocatorIcEEE8max_sizeB8ue170006IS2_vEEmRKS2_, symObjAddr: 0x5C14, symBinAddr: 0x100008C9C, symSize: 0x24 }
  - { offsetInCU: 0x12F1B, offset: 0x12F1B, size: 0x8, addend: 0x0, symName: __ZNKSt3__112basic_stringIcNS_11char_traitsIcEENS_9allocatorIcEEE7__allocB8ue170006Ev, symObjAddr: 0x5C38, symBinAddr: 0x100008CC0, symSize: 0x24 }
  - { offsetInCU: 0x12F41, offset: 0x12F41, size: 0x8, addend: 0x0, symName: __ZNSt3__114numeric_limitsImE3maxB8ue170006Ev, symObjAddr: 0x5C5C, symBinAddr: 0x100008CE4, symSize: 0x14 }
  - { offsetInCU: 0x12F55, offset: 0x12F55, size: 0x8, addend: 0x0, symName: __ZNKSt3__19allocatorIcE8max_sizeB8ue170006Ev, symObjAddr: 0x5C70, symBinAddr: 0x100008CF8, symSize: 0x14 }
  - { offsetInCU: 0x12F7B, offset: 0x12F7B, size: 0x8, addend: 0x0, symName: __ZNKSt3__117__compressed_pairINS_12basic_stringIcNS_11char_traitsIcEENS_9allocatorIcEEE5__repES5_E6secondB8ue170006Ev, symObjAddr: 0x5C84, symBinAddr: 0x100008D0C, symSize: 0x24 }
  - { offsetInCU: 0x12FA1, offset: 0x12FA1, size: 0x8, addend: 0x0, symName: __ZNKSt3__122__compressed_pair_elemINS_9allocatorIcEELi1ELb1EE5__getB8ue170006Ev, symObjAddr: 0x5CA8, symBinAddr: 0x100008D30, symSize: 0x14 }
  - { offsetInCU: 0x12FC7, offset: 0x12FC7, size: 0x8, addend: 0x0, symName: __ZNSt3__123__libcpp_numeric_limitsImLb1EE3maxB8ue170006Ev, symObjAddr: 0x5CBC, symBinAddr: 0x100008D44, symSize: 0x8 }
  - { offsetInCU: 0x12FDA, offset: 0x12FDA, size: 0x8, addend: 0x0, symName: __Z7isasciii, symObjAddr: 0x5CC4, symBinAddr: 0x100008D4C, symSize: 0x24 }
  - { offsetInCU: 0x13007, offset: 0x13007, size: 0x8, addend: 0x0, symName: __ZNSt3__111char_traitsIcE6lengthB8ue170006EPKc, symObjAddr: 0x5CE8, symBinAddr: 0x100008D70, symSize: 0x34 }
  - { offsetInCU: 0x1302A, offset: 0x1302A, size: 0x8, addend: 0x0, symName: __ZNKSt3__112basic_stringIcNS_11char_traitsIcEENS_9allocatorIcEEE4sizeB8ue170006Ev, symObjAddr: 0x5D1C, symBinAddr: 0x100008DA4, symSize: 0x54 }
  - { offsetInCU: 0x13050, offset: 0x13050, size: 0x8, addend: 0x0, symName: __ZNKSt3__112basic_stringIcNS_11char_traitsIcEENS_9allocatorIcEEE15__get_long_sizeB8ue170006Ev, symObjAddr: 0x5D94, symBinAddr: 0x100008E1C, symSize: 0x28 }
  - { offsetInCU: 0x13076, offset: 0x13076, size: 0x8, addend: 0x0, symName: __ZNKSt3__112basic_stringIcNS_11char_traitsIcEENS_9allocatorIcEEE16__get_short_sizeB8ue170006Ev, symObjAddr: 0x5DBC, symBinAddr: 0x100008E44, symSize: 0x34 }
  - { offsetInCU: 0x1309C, offset: 0x1309C, size: 0x8, addend: 0x0, symName: __ZNSt3__16vectorI4NodeNS_9allocatorIS1_EEE11__make_iterB8ue170006EPS1_, symObjAddr: 0x5DF0, symBinAddr: 0x100008E78, symSize: 0x30 }
  - { offsetInCU: 0x130D1, offset: 0x130D1, size: 0x8, addend: 0x0, symName: __ZNSt3__111__wrap_iterIP4NodeEC1B8ue170006ES2_, symObjAddr: 0x5E20, symBinAddr: 0x100008EA8, symSize: 0x34 }
  - { offsetInCU: 0x13109, offset: 0x13109, size: 0x8, addend: 0x0, symName: __ZNSt3__111__wrap_iterIP4NodeEC2B8ue170006ES2_, symObjAddr: 0x5E54, symBinAddr: 0x100008EDC, symSize: 0x20 }
  - { offsetInCU: 0x13141, offset: 0x13141, size: 0x8, addend: 0x0, symName: __ZNKSt3__16vectorI4NodeNS_9allocatorIS1_EEE6cbeginB8ue170006Ev, symObjAddr: 0x5EBC, symBinAddr: 0x100008F44, symSize: 0x2C }
  - { offsetInCU: 0x13167, offset: 0x13167, size: 0x8, addend: 0x0, symName: __ZNSt3__16vectorI4NodeNS_9allocatorIS1_EEE17__destruct_at_endB8ue170006EPS1_, symObjAddr: 0x5EE8, symBinAddr: 0x100008F70, symSize: 0x4C }
  - { offsetInCU: 0x131AB, offset: 0x131AB, size: 0x8, addend: 0x0, symName: __ZNKSt3__111__wrap_iterIPK4NodeE4baseB8ue170006Ev, symObjAddr: 0x5F74, symBinAddr: 0x100008FFC, symSize: 0x18 }
  - { offsetInCU: 0x131D1, offset: 0x131D1, size: 0x8, addend: 0x0, symName: __ZNKSt3__16vectorI4NodeNS_9allocatorIS1_EEE5beginB8ue170006Ev, symObjAddr: 0x5F8C, symBinAddr: 0x100009014, symSize: 0x30 }
  - { offsetInCU: 0x131F9, offset: 0x131F9, size: 0x8, addend: 0x0, symName: __ZNKSt3__16vectorI4NodeNS_9allocatorIS1_EEE11__make_iterB8ue170006EPKS1_, symObjAddr: 0x5FBC, symBinAddr: 0x100009044, symSize: 0x30 }
  - { offsetInCU: 0x1322E, offset: 0x1322E, size: 0x8, addend: 0x0, symName: __ZNSt3__111__wrap_iterIPK4NodeEC1B8ue170006ES3_, symObjAddr: 0x5FEC, symBinAddr: 0x100009074, symSize: 0x34 }
  - { offsetInCU: 0x13266, offset: 0x13266, size: 0x8, addend: 0x0, symName: __ZNSt3__111__wrap_iterIPK4NodeEC2B8ue170006ES3_, symObjAddr: 0x6020, symBinAddr: 0x1000090A8, symSize: 0x20 }
  - { offsetInCU: 0x1329E, offset: 0x1329E, size: 0x8, addend: 0x0, symName: __ZNKSt3__16vectorI4NodeNS_9allocatorIS1_EEE17__annotate_shrinkB8ue170006Em, symObjAddr: 0x6040, symBinAddr: 0x1000090C8, symSize: 0xB4 }
  - { offsetInCU: 0x132F6, offset: 0x132F6, size: 0x8, addend: 0x0, symName: __ZNKSt3__114__move_trivialclB8ue170006I4NodeS2_Li0EEENS_4pairIPT_PT0_EES5_S5_S7_, symObjAddr: 0x6290, symBinAddr: 0x100009318, symSize: 0x48 }
  - { offsetInCU: 0x13363, offset: 0x13363, size: 0x8, addend: 0x0, symName: __ZNSt3__14pairIP4NodeS2_EC1B8ue170006IRS2_S2_LPv0EEEOT_OT0_, symObjAddr: 0x64B8, symBinAddr: 0x100009540, symSize: 0x3C }
  - { offsetInCU: 0x133C1, offset: 0x133C1, size: 0x8, addend: 0x0, symName: __ZNSt3__14pairIP4NodeS2_EC2B8ue170006IRS2_S2_LPv0EEEOT_OT0_, symObjAddr: 0x64F4, symBinAddr: 0x10000957C, symSize: 0x34 }
  - { offsetInCU: 0x1341F, offset: 0x1341F, size: 0x8, addend: 0x0, symName: __ZNSt3__118__unwrap_iter_implIP4NodeLb1EE8__unwrapB8ue170006ES2_, symObjAddr: 0x6528, symBinAddr: 0x1000095B0, symSize: 0x24 }
  - { offsetInCU: 0x13442, offset: 0x13442, size: 0x8, addend: 0x0, symName: __ZNSt3__14pairIP4NodeS2_EC1B8ue170006IS2_S2_LPv0EEEOT_OT0_, symObjAddr: 0x654C, symBinAddr: 0x1000095D4, symSize: 0x3C }
  - { offsetInCU: 0x134A0, offset: 0x134A0, size: 0x8, addend: 0x0, symName: __ZNSt3__14pairIP4NodeS2_EC2B8ue170006IS2_S2_LPv0EEEOT_OT0_, symObjAddr: 0x6588, symBinAddr: 0x100009610, symSize: 0x34 }
  - { offsetInCU: 0x134FE, offset: 0x134FE, size: 0x8, addend: 0x0, symName: __ZNSt3__118__unwrap_iter_implIP4NodeLb1EE8__rewrapB8ue170006ES2_S2_, symObjAddr: 0x65BC, symBinAddr: 0x100009644, symSize: 0x50 }
  - { offsetInCU: 0x1352F, offset: 0x1352F, size: 0x8, addend: 0x0, symName: __ZNSt3__16vectorI4NodeNS_9allocatorIS1_EEE22__construct_one_at_endB8ue170006IJRKS1_EEEvDpOT_, symObjAddr: 0x660C, symBinAddr: 0x100009694, symSize: 0x90 }
  - { offsetInCU: 0x1357E, offset: 0x1357E, size: 0x8, addend: 0x0, symName: __ZNSt3__16vectorI4NodeNS_9allocatorIS1_EEE21__push_back_slow_pathIRKS1_EEvOT_, symObjAddr: 0x669C, symBinAddr: 0x100009724, symSize: 0xD8 }
  - { offsetInCU: 0x135DC, offset: 0x135DC, size: 0x8, addend: 0x0, symName: __ZNKSt3__16vectorI4NodeNS_9allocatorIS1_EEE11__recommendB8ue170006Em, symObjAddr: 0x6774, symBinAddr: 0x1000097FC, symSize: 0xB4 }
  - { offsetInCU: 0x13631, offset: 0x13631, size: 0x8, addend: 0x0, symName: __ZNSt3__114__split_bufferI4NodeRNS_9allocatorIS1_EEEC1EmmS4_, symObjAddr: 0x6828, symBinAddr: 0x1000098B0, symSize: 0x44 }
  - { offsetInCU: 0x13687, offset: 0x13687, size: 0x8, addend: 0x0, symName: __ZNSt3__114__split_bufferI4NodeRNS_9allocatorIS1_EEED1Ev, symObjAddr: 0x697C, symBinAddr: 0x100009A04, symSize: 0x2C }
  - { offsetInCU: 0x136B3, offset: 0x136B3, size: 0x8, addend: 0x0, symName: __ZNSt3__114__split_bufferI4NodeRNS_9allocatorIS1_EEEC2EmmS4_, symObjAddr: 0x69A8, symBinAddr: 0x100009A30, symSize: 0xD4 }
  - { offsetInCU: 0x13727, offset: 0x13727, size: 0x8, addend: 0x0, symName: __ZNSt3__117__compressed_pairIP4NodeRNS_9allocatorIS1_EEEC1B8ue170006IDnS5_EEOT_OT0_, symObjAddr: 0x6A7C, symBinAddr: 0x100009B04, symSize: 0x3C }
  - { offsetInCU: 0x1377F, offset: 0x1377F, size: 0x8, addend: 0x0, symName: __ZNSt3__114__split_bufferI4NodeRNS_9allocatorIS1_EEE7__allocB8ue170006Ev, symObjAddr: 0x6AB8, symBinAddr: 0x100009B40, symSize: 0x28 }
  - { offsetInCU: 0x137A5, offset: 0x137A5, size: 0x8, addend: 0x0, symName: __ZNSt3__114__split_bufferI4NodeRNS_9allocatorIS1_EEE9__end_capB8ue170006Ev, symObjAddr: 0x6AE0, symBinAddr: 0x100009B68, symSize: 0x28 }
  - { offsetInCU: 0x137CB, offset: 0x137CB, size: 0x8, addend: 0x0, symName: __ZNSt3__117__compressed_pairIP4NodeRNS_9allocatorIS1_EEEC2B8ue170006IDnS5_EEOT_OT0_, symObjAddr: 0x6B08, symBinAddr: 0x100009B90, symSize: 0x48 }
  - { offsetInCU: 0x13823, offset: 0x13823, size: 0x8, addend: 0x0, symName: __ZNSt3__122__compressed_pair_elemIRNS_9allocatorI4NodeEELi1ELb0EEC2B8ue170006IS4_vEEOT_, symObjAddr: 0x6B50, symBinAddr: 0x100009BD8, symSize: 0x20 }
  - { offsetInCU: 0x13865, offset: 0x13865, size: 0x8, addend: 0x0, symName: __ZNSt3__117__compressed_pairIP4NodeRNS_9allocatorIS1_EEE6secondB8ue170006Ev, symObjAddr: 0x6B70, symBinAddr: 0x100009BF8, symSize: 0x28 }
  - { offsetInCU: 0x1388B, offset: 0x1388B, size: 0x8, addend: 0x0, symName: __ZNSt3__122__compressed_pair_elemIRNS_9allocatorI4NodeEELi1ELb0EE5__getB8ue170006Ev, symObjAddr: 0x6B98, symBinAddr: 0x100009C20, symSize: 0x18 }
  - { offsetInCU: 0x138B1, offset: 0x138B1, size: 0x8, addend: 0x0, symName: __ZNSt3__117__compressed_pairIP4NodeRNS_9allocatorIS1_EEE5firstB8ue170006Ev, symObjAddr: 0x6BB0, symBinAddr: 0x100009C38, symSize: 0x24 }
  - { offsetInCU: 0x138D7, offset: 0x138D7, size: 0x8, addend: 0x0, symName: __ZNSt3__116reverse_iteratorIP4NodeEC1B8ue170006ES2_, symObjAddr: 0x6C4C, symBinAddr: 0x100009CD4, symSize: 0x34 }
  - { offsetInCU: 0x1390F, offset: 0x1390F, size: 0x8, addend: 0x0, symName: __ZNKSt3__116reverse_iteratorIP4NodeE4baseB8ue170006Ev, symObjAddr: 0x6C80, symBinAddr: 0x100009D08, symSize: 0x18 }
  - { offsetInCU: 0x13958, offset: 0x13958, size: 0x8, addend: 0x0, symName: __ZNKSt3__111__move_loopINS_17_ClassicAlgPolicyEEclB8ue170006INS_16reverse_iteratorIP4NodeEES7_S7_EENS_4pairIT_T1_EES9_T0_SA_, symObjAddr: 0x6FC4, symBinAddr: 0x10000A04C, symSize: 0xA8 }
  - { offsetInCU: 0x139C8, offset: 0x139C8, size: 0x8, addend: 0x0, symName: __ZNSt3__18_IterOpsINS_17_ClassicAlgPolicyEE11__iter_moveB8ue170006IRNS_16reverse_iteratorIP4NodeEEEENS_9enable_ifIXsr12is_referenceIDTdeclsr3stdE7declvalIRT_EEEEE5valueEDTclsr3stdE4movedeclsr3stdE7declvalISB_EEEEE4typeEOSA_, symObjAddr: 0x7200, symBinAddr: 0x10000A288, symSize: 0x28 }
  - { offsetInCU: 0x139F4, offset: 0x139F4, size: 0x8, addend: 0x0, symName: __ZNKSt3__116reverse_iteratorIP4NodeEdeB8ue170006Ev, symObjAddr: 0x7228, symBinAddr: 0x10000A2B0, symSize: 0x28 }
  - { offsetInCU: 0x13A28, offset: 0x13A28, size: 0x8, addend: 0x0, symName: __ZNSt3__116reverse_iteratorIP4NodeEppB8ue170006Ev, symObjAddr: 0x7250, symBinAddr: 0x10000A2D8, symSize: 0x20 }
  - { offsetInCU: 0x13A4E, offset: 0x13A4E, size: 0x8, addend: 0x0, symName: __ZNSt3__18_IterOpsINS_17_ClassicAlgPolicyEE25__validate_iter_referenceB8ue170006IRNS_16reverse_iteratorIP4NodeEEEEvv, symObjAddr: 0x7270, symBinAddr: 0x10000A2F8, symSize: 0x4 }
  - { offsetInCU: 0x13A6C, offset: 0x13A6C, size: 0x8, addend: 0x0, symName: __ZNSt3__118__unwrap_iter_implINS_16reverse_iteratorIP4NodeEELb0EE8__unwrapB8ue170006ES4_, symObjAddr: 0x7274, symBinAddr: 0x10000A2FC, symSize: 0x24 }
  - { offsetInCU: 0x13A94, offset: 0x13A94, size: 0x8, addend: 0x0, symName: __ZNSt3__14pairINS_16reverse_iteratorIP4NodeEES4_EC1B8ue170006IS4_S4_LPv0EEEOT_OT0_, symObjAddr: 0x7298, symBinAddr: 0x10000A320, symSize: 0x3C }
  - { offsetInCU: 0x13AF2, offset: 0x13AF2, size: 0x8, addend: 0x0, symName: __ZNSt3__14pairINS_16reverse_iteratorIP4NodeEES4_EC2B8ue170006IS4_S4_LPv0EEEOT_OT0_, symObjAddr: 0x72D4, symBinAddr: 0x10000A35C, symSize: 0x34 }
  - { offsetInCU: 0x13B50, offset: 0x13B50, size: 0x8, addend: 0x0, symName: __ZNSt3__118__unwrap_iter_implINS_16reverse_iteratorIP4NodeEELb0EE8__rewrapB8ue170006ES4_S4_, symObjAddr: 0x7308, symBinAddr: 0x10000A390, symSize: 0x2C }
  - { offsetInCU: 0x13B7E, offset: 0x13B7E, size: 0x8, addend: 0x0, symName: __ZNSt3__116reverse_iteratorIP4NodeEC2B8ue170006ES2_, symObjAddr: 0x7334, symBinAddr: 0x10000A3BC, symSize: 0x28 }
  - { offsetInCU: 0x13BB6, offset: 0x13BB6, size: 0x8, addend: 0x0, symName: __ZNSt3__114__split_bufferI4NodeRNS_9allocatorIS1_EEED2Ev, symObjAddr: 0x735C, symBinAddr: 0x10000A3E4, symSize: 0x8C }
  - { offsetInCU: 0x13BE2, offset: 0x13BE2, size: 0x8, addend: 0x0, symName: __ZNSt3__114__split_bufferI4NodeRNS_9allocatorIS1_EEE5clearB8ue170006Ev, symObjAddr: 0x73E8, symBinAddr: 0x10000A470, symSize: 0x28 }
  - { offsetInCU: 0x13C08, offset: 0x13C08, size: 0x8, addend: 0x0, symName: __ZNKSt3__114__split_bufferI4NodeRNS_9allocatorIS1_EEE8capacityB8ue170006Ev, symObjAddr: 0x7410, symBinAddr: 0x10000A498, symSize: 0x40 }
  - { offsetInCU: 0x13C2E, offset: 0x13C2E, size: 0x8, addend: 0x0, symName: __ZNSt3__114__split_bufferI4NodeRNS_9allocatorIS1_EEE17__destruct_at_endB8ue170006EPS1_, symObjAddr: 0x7450, symBinAddr: 0x10000A4D8, symSize: 0x2C }
  - { offsetInCU: 0x13C62, offset: 0x13C62, size: 0x8, addend: 0x0, symName: __ZNSt3__114__split_bufferI4NodeRNS_9allocatorIS1_EEE17__destruct_at_endB8ue170006EPS1_NS_17integral_constantIbLb0EEE, symObjAddr: 0x747C, symBinAddr: 0x10000A504, symSize: 0x80 }
  - { offsetInCU: 0x13CA3, offset: 0x13CA3, size: 0x8, addend: 0x0, symName: __ZNKSt3__114__split_bufferI4NodeRNS_9allocatorIS1_EEE9__end_capB8ue170006Ev, symObjAddr: 0x74FC, symBinAddr: 0x10000A584, symSize: 0x28 }
  - { offsetInCU: 0x13CC9, offset: 0x13CC9, size: 0x8, addend: 0x0, symName: __ZNKSt3__117__compressed_pairIP4NodeRNS_9allocatorIS1_EEE5firstB8ue170006Ev, symObjAddr: 0x7524, symBinAddr: 0x10000A5AC, symSize: 0x24 }
  - { offsetInCU: 0x13CEF, offset: 0x13CEF, size: 0x8, addend: 0x0, symName: __ZNKSt3__19basic_iosIcNS_11char_traitsIcEEE5widenB8ue170006Ec, symObjAddr: 0x7548, symBinAddr: 0x10000A5D0, symSize: 0x84 }
  - { offsetInCU: 0x13D26, offset: 0x13D26, size: 0x8, addend: 0x0, symName: __ZNKSt3__15ctypeIcE5widenB8ue170006Ec, symObjAddr: 0x75CC, symBinAddr: 0x10000A654, symSize: 0x38 }
  - { offsetInCU: 0x13D5B, offset: 0x13D5B, size: 0x8, addend: 0x0, symName: __ZNSt3__16vectorINS0_I4NodeNS_9allocatorIS1_EEEENS2_IS4_EEE11__make_iterB8ue170006EPS4_, symObjAddr: 0x7604, symBinAddr: 0x10000A68C, symSize: 0x30 }
  - { offsetInCU: 0x13D90, offset: 0x13D90, size: 0x8, addend: 0x0, symName: __ZNSt3__111__wrap_iterIPNS_6vectorI4NodeNS_9allocatorIS2_EEEEEC1B8ue170006ES6_, symObjAddr: 0x7634, symBinAddr: 0x10000A6BC, symSize: 0x34 }
  - { offsetInCU: 0x13DC8, offset: 0x13DC8, size: 0x8, addend: 0x0, symName: __ZNSt3__111__wrap_iterIPNS_6vectorI4NodeNS_9allocatorIS2_EEEEEC2B8ue170006ES6_, symObjAddr: 0x7668, symBinAddr: 0x10000A6F0, symSize: 0x20 }
  - { offsetInCU: 0x13E00, offset: 0x13E00, size: 0x8, addend: 0x0, symName: __ZNSt3__16vectorI4NodeNS_9allocatorIS1_EEEC2ERKS4_, symObjAddr: 0x7688, symBinAddr: 0x10000A710, symSize: 0x94 }
  - { offsetInCU: 0x13E3B, offset: 0x13E3B, size: 0x8, addend: 0x0, symName: __ZNSt3__116allocator_traitsINS_9allocatorI4NodeEEE37select_on_container_copy_constructionB8ue170006IS3_vvEES3_RKS3_, symObjAddr: 0x771C, symBinAddr: 0x10000A7A4, symSize: 0x10 }
  - { offsetInCU: 0x13E6A, offset: 0x13E6A, size: 0x8, addend: 0x0, symName: __ZNSt3__16vectorI4NodeNS_9allocatorIS1_EEE16__init_with_sizeB8ue170006IPS1_S6_EEvT_T0_m, symObjAddr: 0x772C, symBinAddr: 0x10000A7B4, symSize: 0xB8 }
  - { offsetInCU: 0x13EDE, offset: 0x13EDE, size: 0x8, addend: 0x0, symName: __ZNSt3__16vectorI4NodeNS_9allocatorIS1_EEE18__construct_at_endIPS1_S6_EEvT_T0_m, symObjAddr: 0x77E4, symBinAddr: 0x10000A86C, symSize: 0x8C }
  - { offsetInCU: 0x13F5E, offset: 0x13F5E, size: 0x8, addend: 0x0, symName: __ZNKSt3__114__copy_trivialclB8ue170006I4NodeS2_Li0EEENS_4pairIPT_PT0_EES5_S5_S7_, symObjAddr: 0x7AA4, symBinAddr: 0x10000AB2C, symSize: 0x48 }
  - { offsetInCU: 0x13FE4, offset: 0x13FE4, size: 0x8, addend: 0x0, symName: __ZNKSt3__113basic_ostreamIcNS_11char_traitsIcEEE6sentrycvbB8ue170006Ev, symObjAddr: 0x7CD8, symBinAddr: 0x10000AD60, symSize: 0x1C }
  - { offsetInCU: 0x1400A, offset: 0x1400A, size: 0x8, addend: 0x0, symName: __ZNSt3__119ostreambuf_iteratorIcNS_11char_traitsIcEEEC1B8ue170006ERNS_13basic_ostreamIcS2_EE, symObjAddr: 0x7F34, symBinAddr: 0x10000AFBC, symSize: 0x34 }
  - { offsetInCU: 0x14042, offset: 0x14042, size: 0x8, addend: 0x0, symName: __ZNKSt3__18ios_base5flagsB8ue170006Ev, symObjAddr: 0x7F68, symBinAddr: 0x10000AFF0, symSize: 0x18 }
  - { offsetInCU: 0x1406A, offset: 0x1406A, size: 0x8, addend: 0x0, symName: __ZNKSt3__19basic_iosIcNS_11char_traitsIcEEE4fillB8ue170006Ev, symObjAddr: 0x7F80, symBinAddr: 0x10000B008, symSize: 0x64 }
  - { offsetInCU: 0x14092, offset: 0x14092, size: 0x8, addend: 0x0, symName: __ZNKSt3__119ostreambuf_iteratorIcNS_11char_traitsIcEEE6failedB8ue170006Ev, symObjAddr: 0x7FE4, symBinAddr: 0x10000B06C, symSize: 0x24 }
  - { offsetInCU: 0x140B8, offset: 0x140B8, size: 0x8, addend: 0x0, symName: __ZNSt3__115basic_streambufIcNS_11char_traitsIcEEE5sputnB8ue170006EPKcl, symObjAddr: 0x8008, symBinAddr: 0x10000B090, symSize: 0x3C }
  - { offsetInCU: 0x140FA, offset: 0x140FA, size: 0x8, addend: 0x0, symName: __ZNSt3__112basic_stringIcNS_11char_traitsIcEENS_9allocatorIcEEEC1B8ue170006Emc, symObjAddr: 0x8044, symBinAddr: 0x10000B0CC, symSize: 0x3C }
  - { offsetInCU: 0x14142, offset: 0x14142, size: 0x8, addend: 0x0, symName: __ZNKSt3__112basic_stringIcNS_11char_traitsIcEENS_9allocatorIcEEE4dataB8ue170006Ev, symObjAddr: 0x8080, symBinAddr: 0x10000B108, symSize: 0x28 }
  - { offsetInCU: 0x14168, offset: 0x14168, size: 0x8, addend: 0x0, symName: __ZNSt3__112basic_stringIcNS_11char_traitsIcEENS_9allocatorIcEEEC2B8ue170006Emc, symObjAddr: 0x80A8, symBinAddr: 0x10000B130, symSize: 0x4C }
  - { offsetInCU: 0x141B0, offset: 0x141B0, size: 0x8, addend: 0x0, symName: __ZNKSt3__112basic_stringIcNS_11char_traitsIcEENS_9allocatorIcEEE13__get_pointerB8ue170006Ev, symObjAddr: 0x8108, symBinAddr: 0x10000B190, symSize: 0x54 }
  - { offsetInCU: 0x141D6, offset: 0x141D6, size: 0x8, addend: 0x0, symName: __ZNKSt3__112basic_stringIcNS_11char_traitsIcEENS_9allocatorIcEEE18__get_long_pointerB8ue170006Ev, symObjAddr: 0x815C, symBinAddr: 0x10000B1E4, symSize: 0x28 }
  - { offsetInCU: 0x141FC, offset: 0x141FC, size: 0x8, addend: 0x0, symName: __ZNKSt3__112basic_stringIcNS_11char_traitsIcEENS_9allocatorIcEEE19__get_short_pointerB8ue170006Ev, symObjAddr: 0x8184, symBinAddr: 0x10000B20C, symSize: 0x28 }
  - { offsetInCU: 0x14222, offset: 0x14222, size: 0x8, addend: 0x0, symName: __ZNSt3__114pointer_traitsIPKcE10pointer_toB8ue170006ERS1_, symObjAddr: 0x81AC, symBinAddr: 0x10000B234, symSize: 0x14 }
  - { offsetInCU: 0x14245, offset: 0x14245, size: 0x8, addend: 0x0, symName: __ZNSt3__119ostreambuf_iteratorIcNS_11char_traitsIcEEEC2B8ue170006ERNS_13basic_ostreamIcS2_EE, symObjAddr: 0x81C0, symBinAddr: 0x10000B248, symSize: 0x54 }
...
